 SocialLine

 Timestamp is 52a2e65a (Sat Dec 07 18:11:54 2013)

 Preferred load address is 00400000

 Start         Length     Name                   Class
 0001:00000000 00000040H .idata$5                CODE
 0001:00000040 00002a98H .text                   CODE
 0001:00002ae0 00000004H .text$0                 CODE
 0001:00002af0 00000004H .text$2                 CODE
 0001:00002af4 00000014H .idata$2                CODE
 0001:00002b08 00000014H .idata$3                CODE
 0001:00002b1c 00000040H .idata$4                CODE
 0001:00002b5c 000000a0H .idata$6                CODE
 0001:00002bfc 00000000H .edata                  CODE
 0002:00000000 00000af0H .bss                    DATA
 0003:00000000 00000148H .rsrc$01                DATA
 0003:00000150 00000858H .rsrc$02                DATA

  Address         Publics by Value              Rva+Base     Lib:Object

 0001:00000000       __imp____vba@07543264      00401000     SocialLine.OBJ
 0001:00000000       __imp_@__vba@07543264      00401000     SocialLine.OBJ
 0001:00000008       __imp_@__vba@0754322C      00401008     SocialLine.OBJ
 0001:00000008       __imp____vba@0754322C      00401008     SocialLine.OBJ
 0001:00000020       __imp____vba@0754329C      00401020     SocialLine.OBJ
 0001:00000020       __imp_@__vba@0754329C      00401020     SocialLine.OBJ
 0001:0000002c       __imp_@__vba@07543374      0040102c     SocialLine.OBJ
 0001:0000002c       __imp____vba@07543374      0040102c     SocialLine.OBJ
 0001:00000030       __imp____vba@0753E2B4      00401030     SocialLine.OBJ
 0001:00000030       __imp_@__vba@0753E2B4      00401030     SocialLine.OBJ
 0001:00000034       __imp____vba@075432D4      00401034     SocialLine.OBJ
 0001:00000034       __imp_@__vba@075432D4      00401034     SocialLine.OBJ
 0001:00000038       __imp____vba@0754330C      00401038     SocialLine.OBJ
 0001:00000038       __imp_@__vba@0754330C      00401038     SocialLine.OBJ
 0001:00000040       VB@TEXT                    00401040     SocialLine.OBJ
 0001:00000046       ___vba@0754322C            00401046     SocialLine.OBJ
 0001:00000046       @__vba@0754322C            00401046     SocialLine.OBJ
 0001:0000004c       @__vba@07543264            0040104c     SocialLine.OBJ
 0001:0000004c       ___vba@07543264            0040104c     SocialLine.OBJ
 0001:00000052       ___vba@0754329C            00401052     SocialLine.OBJ
 0001:00000052       @__vba@0754329C            00401052     SocialLine.OBJ
 0001:00000058       ___vba@075432D4            00401058     SocialLine.OBJ
 0001:00000058       @__vba@075432D4            00401058     SocialLine.OBJ
 0001:0000005e       ___vba@0754330C            0040105e     SocialLine.OBJ
 0001:0000005e       @__vba@0754330C            0040105e     SocialLine.OBJ
 0001:00000064       @__vba@07543374            00401064     SocialLine.OBJ
 0001:00000064       ___vba@07543374            00401064     SocialLine.OBJ
 0001:0000006a       @__vba@0753E2B4            0040106a     SocialLine.OBJ
 0001:0000006a       ___vba@0753E2B4            0040106a     SocialLine.OBJ
 0001:0000009c       ___vbaS                    0040109c     SocialLine.OBJ
 0001:00000564       ___vba@051C86DC            00401564     SocialLine.OBJ
 0001:000005f0       ?AsyncThread@Bas@@AAGXXZ   004015f0     SocialLine.OBJ
 0001:000008d4       ___vba@051CA23C            004018d4     SocialLine.OBJ
 0001:00000f70       ?Button_Login_Click@fMain@@AAGXXZ 00401f70     SocialLine.OBJ
 0001:00000f84       ?Form_Load@fMain@@AAGXXZ   00401f84     SocialLine.OBJ
 0001:00000f98       ?Form_Unload@fMain@@AAGXXZ 00401f98     SocialLine.OBJ
 0001:00000fac       ?Text_ID_GotFocus@fMain@@AAGXXZ 00401fac     SocialLine.OBJ
 0001:00000fc0       ?Text_ID_KeyDown@fMain@@AAGXXZ 00401fc0     SocialLine.OBJ
 0001:00000fd4       ?Text_ID_LostFocus@fMain@@AAGXXZ 00401fd4     SocialLine.OBJ
 0001:00000fe8       ?Text_pw_GotFocus@fMain@@AAGXXZ 00401fe8     SocialLine.OBJ
 0001:00000ffc       ?Text_pw_KeyDown@fMain@@AAGXXZ 00401ffc     SocialLine.OBJ
 0001:00001010       ?Text_pw_LostFocus@fMain@@AAGXXZ 00402010     SocialLine.OBJ
 0001:00001024       ___vba@051CADA4            00402024     SocialLine.OBJ
 0001:000010fc       ___vba@051CADFC            004020fc     SocialLine.OBJ
 0001:00001104       ___vba@051CAE08            00402104     SocialLine.OBJ
 0001:00001108       ___vba@051CAE10            00402108     SocialLine.OBJ
 0001:00001114       ___vba@051CAE20            00402114     SocialLine.OBJ
 0001:00001124       ___vba@051CAE34            00402124     SocialLine.OBJ
 0001:00001134       ___vba@051CAE48            00402134     SocialLine.OBJ
 0001:00001144       ___vba@051CAE5C            00402144     SocialLine.OBJ
 0001:00001154       ___vba@051CAE70            00402154     SocialLine.OBJ
 0001:00001164       ___vba@051CAE84            00402164     SocialLine.OBJ
 0001:0000116c       ___vba@051CAE90            0040216c     SocialLine.OBJ
 0001:0000117c       ___vba@051CAEA4            0040217c     SocialLine.OBJ
 0001:000011b8       ___vba@051CAEE4            004021b8     SocialLine.OBJ
 0001:000011bc       ___vba@051CAEEC            004021bc     SocialLine.OBJ
 0001:000011e4       ___vba@051CAF18            004021e4     SocialLine.OBJ
 0001:000011f4       ___vba@051CAF2C            004021f4     SocialLine.OBJ
 0001:00001204       ___vba@051CAF40            00402204     SocialLine.OBJ
 0001:00001214       ___vba@051CAF54            00402214     SocialLine.OBJ
 0001:00001218       ___vba@051CAF5C            00402218     SocialLine.OBJ
 0001:00001228       ___vba@051CAF70            00402228     SocialLine.OBJ
 0001:00001230       ___vba@051CAF7C            00402230     SocialLine.OBJ
 0001:00001240       ___vba@051CAF90            00402240     SocialLine.OBJ
 0001:00001248       ___vba@07540B54            00402248     SocialLine.OBJ
 0001:00001258       ___vba@07540B68            00402258     SocialLine.OBJ
 0001:00001260       ___vba@07540B74            00402260     SocialLine.OBJ
 0001:00001268       ___vba@07540B80            00402268     SocialLine.OBJ
 0001:00001278       ___vba@07540B94            00402278     SocialLine.OBJ
 0001:00001284       ___vba@07540BA4            00402284     SocialLine.OBJ
 0001:00001294       ___vba@07540BB8            00402294     SocialLine.OBJ
 0001:000012a4       ___vba@07540BCC            004022a4     SocialLine.OBJ
 0001:000012b8       ___vba@07540BE0            004022b8     SocialLine.OBJ
 0001:000012c8       ___vba@07540BF4            004022c8     SocialLine.OBJ
 0001:000012fc       ___vba@07540C18            004022fc     SocialLine.OBJ
 0001:0000131c       ___vba@07540C50            0040231c     SocialLine.OBJ
 0001:00001348       ___vba@07540C6C            00402348     SocialLine.OBJ
 0001:00001368       ___vba@07540CA4            00402368     SocialLine.OBJ
 0001:00001388       ___vba@07540CB4            00402388     SocialLine.OBJ
 0001:000013a8       ___vba@07540CEC            004023a8     SocialLine.OBJ
 0001:000013d0       ___vba@07540D04            004023d0     SocialLine.OBJ
 0001:000013f0       ___vba@07540D3C            004023f0     SocialLine.OBJ
 0001:00001418       ___vba@07542D8C            00402418     SocialLine.OBJ
 0001:00001438       ___vba@07542DC4            00402438     SocialLine.OBJ
 0001:0000145c       ___vba@07542DD8            0040245c     SocialLine.OBJ
 0001:00001478       ___vba@07542E10            00402478     SocialLine.OBJ
 0001:000014dc       ___vba@07542E78            004024dc     SocialLine.OBJ
 0001:000014ec       ___vba@07542E8C            004024ec     SocialLine.OBJ
 0001:000014fc       ___vba@07542EA0            004024fc     SocialLine.OBJ
 0001:00001510       ___vba@07542EB4            00402510     SocialLine.OBJ
 0001:00001520       ___vba@07542EC8            00402520     SocialLine.OBJ
 0001:0000158c       ___vba@07542F38            0040258c     SocialLine.OBJ
 0001:000015a0       ___vba@07542F50            004025a0     SocialLine.OBJ
 0001:000015bc       ___vba@07542F70            004025bc     SocialLine.OBJ
 0001:000015cc       ___vba@07542FD4            004025cc     SocialLine.OBJ
 0001:00001650       ___vba@0754305C            00402650     SocialLine.OBJ
 0001:00001664       ___vba@07543074            00402664     SocialLine.OBJ
 0001:0000169c       ___vba@075430B0            0040269c     SocialLine.OBJ
 0001:000016bc       ___vba@075430D4            004026bc     SocialLine.OBJ
 0001:00001704       ___vba@07543120            00402704     SocialLine.OBJ
 0001:00001720       ___vba@07543140            00402720     SocialLine.OBJ
 0001:0000178c       ___vba@075431B4            0040278c     SocialLine.OBJ
 0001:000017a0       ___vba@075431C8            004027a0     SocialLine.OBJ
 0001:000017a8       ___vba@07541B4C            004027a8     SocialLine.OBJ
 0001:00001840       ___vba@07541BE8            00402840     SocialLine.OBJ
 0001:00001854       ___vba@07541C00            00402854     SocialLine.OBJ
 0001:0000187c       ___vba@07541C30            0040287c     SocialLine.OBJ
 0001:00001890       ___vba@07541C44            00402890     SocialLine.OBJ
 0001:000018a4       ___vba@07541C5C            004028a4     SocialLine.OBJ
 0001:00001950       ___vba@07541D10            00402950     SocialLine.OBJ
 0001:00001960       ___vba@07541D24            00402960     SocialLine.OBJ
 0001:00001974       ___vba@07541D38            00402974     SocialLine.OBJ
 0001:00001984       ___vba@07541FDC            00402984     SocialLine.OBJ
 0001:00001990       ___vba@07541FEC            00402990     SocialLine.OBJ
 0001:0000199c       ___vba@07541FFC            0040299c     SocialLine.OBJ
 0001:000019b8       ___vba@0754201C            004029b8     SocialLine.OBJ
 0001:000019c0       ___vba@07542028            004029c0     SocialLine.OBJ
 0001:000019c8       ___vba@07542034            004029c8     SocialLine.OBJ
 0001:000019d4       ___vba@07542044            004029d4     SocialLine.OBJ
 0001:000019fc       ___vba@07542070            004029fc     SocialLine.OBJ
 0001:00001a10       ___vba@07542088            00402a10     SocialLine.OBJ
 0001:00001a74       ___vba@075420F0            00402a74     SocialLine.OBJ
 0001:00001ab8       ___vba@07542138            00402ab8     SocialLine.OBJ
 0001:00001aec       ___vba@07542170            00402aec     SocialLine.OBJ
 0001:00001b14       ___vba@0754219C            00402b14     SocialLine.OBJ
 0001:00001b20       ___vba@075421AC            00402b20     SocialLine.OBJ
 0001:00001b2c       ___vba@075421BC            00402b2c     SocialLine.OBJ
 0001:00001b38       ___vba@075421CC            00402b38     SocialLine.OBJ
 0001:00001b40       ___vba@0754321C            00402b40     SocialLine.OBJ
 0001:00001b50       ___vba@07543344            00402b50     SocialLine.OBJ
 0001:00001b70       ___vba@07543368            00402b70     SocialLine.OBJ
 0001:00001b78       ___vba@075433AC            00402b78     SocialLine.OBJ
 0001:00001b80       ___vba@075433B8            00402b80     SocialLine.OBJ
 0001:00001bb0       ___vba@075433F0            00402bb0     SocialLine.OBJ
 0001:00001bc0       ___vba@07543404            00402bc0     SocialLine.OBJ
 0001:00001bd4       ___vba@0753E244            00402bd4     SocialLine.OBJ
 0001:00001be4       ___vba@0753E258            00402be4     SocialLine.OBJ
 0001:00001bf8       ___vba@0753E26C            00402bf8     SocialLine.OBJ
 0001:00001c0c       ___vba@0753E284            00402c0c     SocialLine.OBJ
 0001:00001c20       ___vba@0753E2A0            00402c20     SocialLine.OBJ
 0001:00001ce0       ___vba@051C824C            00402ce0     SocialLine.OBJ
 0001:00001d6c       ___vba@051C7DBC            00402d6c     SocialLine.OBJ
 0001:00001d94       ___vba@051C7DE8            00402d94     SocialLine.OBJ
 0001:00001da0       ___vba@051C7DF8            00402da0     SocialLine.OBJ
 0001:00001dac       ___vba@051C7E08            00402dac     SocialLine.OBJ
 0001:00001db8       ___vba@051C7E18            00402db8     SocialLine.OBJ
 0001:00001dc4       ___vba@051C7E28            00402dc4     SocialLine.OBJ
 0001:00001dd0       ___vba@051C7E38            00402dd0     SocialLine.OBJ
 0001:00001ddc       ___vba@051C7E48            00402ddc     SocialLine.OBJ
 0001:00002ae0       VB@BTXT                    00403ae0     SocialLine.OBJ
 0001:00002af0       VB@ETXT                    00403af0     SocialLine.OBJ
 0002:00000000       VB@BSS                     00404000     SocialLine.OBJ
 0002:00000008       ___vba@051C9620            00404008     SocialLine.OBJ
 0002:0000001c       _Bas                       0040401c     SocialLine.OBJ
 0002:000003d4       ___vba@0686A354            004043d4     SocialLine.OBJ

 entry point at        0001:0000009c

 Static symbols

