 CrisInstaller

 Timestamp is 510b45c4 (Fri Feb 01 13:34:12 2013)

 Preferred load address is 00400000

 Start         Length     Name                   Class
 0001:00000000 000001f0H .idata$5                CODE
 0001:000001f0 000006b0H .rdata                  CODE
 0001:000008a0 00016294H .text                   CODE
 0001:00016b40 00000004H .text$0                 CODE
 0001:00016b50 00007be0H .text$1                 CODE
 0001:0001e730 00000004H .text$2                 CODE
 0001:0001e734 00000014H .idata$2                CODE
 0001:0001e748 00000014H .idata$3                CODE
 0001:0001e75c 000001f0H .idata$4                CODE
 0001:0001e94c 00000650H .idata$6                CODE
 0001:0001ef9c 00000000H .edata                  CODE
 0002:00000000 00000004H .data                   DATA
 0002:00000008 00001748H .bss                    DATA
 0003:00000000 00000568H .rsrc$01                DATA
 0003:00000570 00013252H .rsrc$02                DATA

  Address         Publics by Value              Rva+Base     Lib:Object

 0001:00000000       __imp____vba@072215EC      00401000     CrisInstaller.OBJ
 0001:00000000       __imp_@__vba@072215EC      00401000     CrisInstaller.OBJ
 0001:00000004       __imp____vbaStrI2          00401004     CrisInstaller.OBJ
 0001:00000004       __imp_@__vbaStrI2          00401004     CrisInstaller.OBJ
 0001:00000008       __imp___CIcos              00401008     CrisInstaller.OBJ
 0001:0000000c       __imp___adj_fptan          0040100c     CrisInstaller.OBJ
 0001:00000010       __imp_@__vbaStrI4          00401010     CrisInstaller.OBJ
 0001:00000010       __imp____vbaStrI4          00401010     CrisInstaller.OBJ
 0001:00000014       __imp____vbaVarMove        00401014     CrisInstaller.OBJ
 0001:00000014       __imp_@__vbaVarMove        00401014     CrisInstaller.OBJ
 0001:00000018       __imp_@__vbaVarVargNofree  00401018     CrisInstaller.OBJ
 0001:00000018       __imp____vbaVarVargNofree  00401018     CrisInstaller.OBJ
 0001:0000001c       __imp____vbaFreeVar        0040101c     CrisInstaller.OBJ
 0001:0000001c       __imp_@__vbaFreeVar        0040101c     CrisInstaller.OBJ
 0001:00000020       __imp_@__vba@07221280      00401020     CrisInstaller.OBJ
 0001:00000020       __imp____vba@07221280      00401020     CrisInstaller.OBJ
 0001:00000024       __imp____vbaLenBstr        00401024     CrisInstaller.OBJ
 0001:00000024       __imp_@__vbaLenBstr        00401024     CrisInstaller.OBJ
 0001:00000028       __imp____vbaStrVarMove     00401028     CrisInstaller.OBJ
 0001:00000028       __imp_@__vbaStrVarMove     00401028     CrisInstaller.OBJ
 0001:0000002c       __imp_@__vbaLineInputStr   0040102c     CrisInstaller.OBJ
 0001:0000002c       __imp____vbaLineInputStr   0040102c     CrisInstaller.OBJ
 0001:00000030       __imp____vbaLateIdCall     00401030     CrisInstaller.OBJ
 0001:00000030       __imp_@__vbaLateIdCall     00401030     CrisInstaller.OBJ
 0001:00000034       __imp____vbaFreeVarList    00401034     CrisInstaller.OBJ
 0001:00000034       __imp_@__vbaFreeVarList    00401034     CrisInstaller.OBJ
 0001:00000038       __imp_@__vbaEnd            00401038     CrisInstaller.OBJ
 0001:00000038       __imp____vbaEnd            00401038     CrisInstaller.OBJ
 0001:0000003c       __imp___adj_fdiv_m64       0040103c     CrisInstaller.OBJ
 0001:00000040       __imp_@__vbaFreeObjList    00401040     CrisInstaller.OBJ
 0001:00000040       __imp____vbaFreeObjList    00401040     CrisInstaller.OBJ
 0001:00000044       __imp_@__vba@079D15F8      00401044     CrisInstaller.OBJ
 0001:00000044       __imp____vba@079D15F8      00401044     CrisInstaller.OBJ
 0001:00000048       __imp___adj_fprem1         00401048     CrisInstaller.OBJ
 0001:0000004c       __imp____vbaRecAnsiToUni   0040104c     CrisInstaller.OBJ
 0001:0000004c       __imp_@__vbaRecAnsiToUni   0040104c     CrisInstaller.OBJ
 0001:00000050       __imp_@__vbaCopyBytes      00401050     CrisInstaller.OBJ
 0001:00000050       __imp____vbaCopyBytes      00401050     CrisInstaller.OBJ
 0001:00000054       __imp_@__vbaStrCat         00401054     CrisInstaller.OBJ
 0001:00000054       __imp____vbaStrCat         00401054     CrisInstaller.OBJ
 0001:00000058       __imp_@__vbaLsetFixstr     00401058     CrisInstaller.OBJ
 0001:00000058       __imp____vbaLsetFixstr     00401058     CrisInstaller.OBJ
 0001:0000005c       __imp____vbaSetSystemError 0040105c     CrisInstaller.OBJ
 0001:0000005c       __imp_@__vbaSetSystemError 0040105c     CrisInstaller.OBJ
 0001:00000060       __imp_@__vbaRecDestruct    00401060     CrisInstaller.OBJ
 0001:00000060       __imp____vbaRecDestruct    00401060     CrisInstaller.OBJ
 0001:00000064       __imp_@__vbaHresultCheckObj 00401064     CrisInstaller.OBJ
 0001:00000064       __imp____vbaHresultCheckObj 00401064     CrisInstaller.OBJ
 0001:00000068       __imp___adj_fdiv_m32       00401068     CrisInstaller.OBJ
 0001:0000006c       __imp____vba@07220D58      0040106c     CrisInstaller.OBJ
 0001:0000006c       __imp_@__vba@07220D58      0040106c     CrisInstaller.OBJ
 0001:00000070       __imp____vba@07221AD8      00401070     CrisInstaller.OBJ
 0001:00000070       __imp_@__vba@07221AD8      00401070     CrisInstaller.OBJ
 0001:00000074       __imp____vbaStrBool        00401074     CrisInstaller.OBJ
 0001:00000074       __imp_@__vbaStrBool        00401074     CrisInstaller.OBJ
 0001:00000078       __imp_@__vbaExitProc       00401078     CrisInstaller.OBJ
 0001:00000078       __imp____vbaExitProc       00401078     CrisInstaller.OBJ
 0001:0000007c       __imp____vba@07221B58      0040107c     CrisInstaller.OBJ
 0001:0000007c       __imp_@__vba@07221B58      0040107c     CrisInstaller.OBJ
 0001:00000080       __imp____vba@079D1578      00401080     CrisInstaller.OBJ
 0001:00000080       __imp_@__vba@079D1578      00401080     CrisInstaller.OBJ
 0001:00000084       __imp____vbaOnError        00401084     CrisInstaller.OBJ
 0001:00000084       __imp_@__vbaOnError        00401084     CrisInstaller.OBJ
 0001:00000088       __imp_@__vbaObjSet         00401088     CrisInstaller.OBJ
 0001:00000088       __imp____vbaObjSet         00401088     CrisInstaller.OBJ
 0001:0000008c       __imp_@__vba@079D168C      0040108c     CrisInstaller.OBJ
 0001:0000008c       __imp____vba@079D168C      0040108c     CrisInstaller.OBJ
 0001:00000090       __imp___adj_fdiv_m16i      00401090     CrisInstaller.OBJ
 0001:00000094       __imp____vbaObjSetAddref   00401094     CrisInstaller.OBJ
 0001:00000094       __imp_@__vbaObjSetAddref   00401094     CrisInstaller.OBJ
 0001:00000098       __imp___adj_fdivr_m16i     00401098     CrisInstaller.OBJ
 0001:0000009c       __imp_@__vba@079D19F0      0040109c     CrisInstaller.OBJ
 0001:0000009c       __imp____vba@079D19F0      0040109c     CrisInstaller.OBJ
 0001:000000a0       __imp_@__vba@079D1744      004010a0     CrisInstaller.OBJ
 0001:000000a0       __imp____vba@079D1744      004010a0     CrisInstaller.OBJ
 0001:000000a4       __imp_@__vbaBoolVar        004010a4     CrisInstaller.OBJ
 0001:000000a4       __imp____vbaBoolVar        004010a4     CrisInstaller.OBJ
 0001:000000a8       __imp___CIsin              004010a8     CrisInstaller.OBJ
 0001:000000ac       __imp____vba@079D16C4      004010ac     CrisInstaller.OBJ
 0001:000000ac       __imp_@__vba@079D16C4      004010ac     CrisInstaller.OBJ
 0001:000000b0       __imp_@__vba@079D17B4      004010b0     CrisInstaller.OBJ
 0001:000000b0       __imp____vba@079D17B4      004010b0     CrisInstaller.OBJ
 0001:000000b4       __imp____vba@079D1378      004010b4     CrisInstaller.OBJ
 0001:000000b4       __imp_@__vba@079D1378      004010b4     CrisInstaller.OBJ
 0001:000000b8       __imp____vbaChkstk         004010b8     CrisInstaller.OBJ
 0001:000000bc       __imp____vbaFileClose      004010bc     CrisInstaller.OBJ
 0001:000000bc       __imp_@__vbaFileClose      004010bc     CrisInstaller.OBJ
 0001:000000c0       __imp_@__vba@0721F628      004010c0     CrisInstaller.OBJ
 0001:000000c0       __imp____vba@0721F628      004010c0     CrisInstaller.OBJ
 0001:000000c8       __imp_@__vba@079D18EC      004010c8     CrisInstaller.OBJ
 0001:000000c8       __imp____vba@079D18EC      004010c8     CrisInstaller.OBJ
 0001:000000cc       __imp____vbaGenerateBoundsError 004010cc     CrisInstaller.OBJ
 0001:000000cc       __imp_@__vbaGenerateBoundsError 004010cc     CrisInstaller.OBJ
 0001:000000d0       __imp____vbaStrCmp         004010d0     CrisInstaller.OBJ
 0001:000000d0       __imp_@__vbaStrCmp         004010d0     CrisInstaller.OBJ
 0001:000000d4       __imp_@__vba@072216A4      004010d4     CrisInstaller.OBJ
 0001:000000d4       __imp____vba@072216A4      004010d4     CrisInstaller.OBJ
 0001:000000d8       __imp_@__vbaVarTstEq       004010d8     CrisInstaller.OBJ
 0001:000000d8       __imp____vbaVarTstEq       004010d8     CrisInstaller.OBJ
 0001:000000dc       __imp____vbaI2I4           004010dc     CrisInstaller.OBJ
 0001:000000dc       __imp_@__vbaI2I4           004010dc     CrisInstaller.OBJ
 0001:000000e4       __imp_@__vbaVarLateMemSt   004010e4     CrisInstaller.OBJ
 0001:000000e4       __imp____vbaVarLateMemSt   004010e4     CrisInstaller.OBJ
 0001:000000e8       __imp___adj_fpatan         004010e8     CrisInstaller.OBJ
 0001:000000ec       __imp_@__vbaFixstrConstruct 004010ec     CrisInstaller.OBJ
 0001:000000ec       __imp____vbaFixstrConstruct 004010ec     CrisInstaller.OBJ
 0001:000000f0       __imp____vbaLateIdCallLd   004010f0     CrisInstaller.OBJ
 0001:000000f0       __imp_@__vbaLateIdCallLd   004010f0     CrisInstaller.OBJ
 0001:000000f4       __imp_@__vbaRecUniToAnsi   004010f4     CrisInstaller.OBJ
 0001:000000f4       __imp____vbaRecUniToAnsi   004010f4     CrisInstaller.OBJ
 0001:000000fc       __imp_@__vba@072213C4      004010fc     CrisInstaller.OBJ
 0001:000000fc       __imp____vba@072213C4      004010fc     CrisInstaller.OBJ
 0001:00000100       __imp_@__vbaUI1I2          00401100     CrisInstaller.OBJ
 0001:00000100       __imp____vbaUI1I2          00401100     CrisInstaller.OBJ
 0001:00000104       __imp___CIsqrt             00401104     CrisInstaller.OBJ
 0001:0000010c       __imp_@__vbaUI1I4          0040110c     CrisInstaller.OBJ
 0001:0000010c       __imp____vbaUI1I4          0040110c     CrisInstaller.OBJ
 0001:00000110       __imp____vbaExceptHandler  00401110     CrisInstaller.OBJ
 0001:00000114       __imp_@__vbaStrToUnicode   00401114     CrisInstaller.OBJ
 0001:00000114       __imp____vbaStrToUnicode   00401114     CrisInstaller.OBJ
 0001:00000118       __imp___adj_fprem          00401118     CrisInstaller.OBJ
 0001:0000011c       __imp___adj_fdivr_m64      0040111c     CrisInstaller.OBJ
 0001:00000120       __imp_@__vba@079D1A28      00401120     CrisInstaller.OBJ
 0001:00000120       __imp____vba@079D1A28      00401120     CrisInstaller.OBJ
 0001:00000124       __imp____vba@072214CC      00401124     CrisInstaller.OBJ
 0001:00000124       __imp_@__vba@072214CC      00401124     CrisInstaller.OBJ
 0001:00000128       __imp____vbaFPException    00401128     CrisInstaller.OBJ
 0001:0000012c       __imp_@__vbaInStrVar       0040112c     CrisInstaller.OBJ
 0001:0000012c       __imp____vbaInStrVar       0040112c     CrisInstaller.OBJ
 0001:00000130       __imp_@__vba@071A16D8      00401130     CrisInstaller.OBJ
 0001:00000130       __imp____vba@071A16D8      00401130     CrisInstaller.OBJ
 0001:00000134       __imp____vba@07221624      00401134     CrisInstaller.OBJ
 0001:00000134       __imp_@__vba@07221624      00401134     CrisInstaller.OBJ
 0001:00000138       __imp____vbaStrVarVal      00401138     CrisInstaller.OBJ
 0001:00000138       __imp_@__vbaStrVarVal      00401138     CrisInstaller.OBJ
 0001:0000013c       __imp____vbaVarCat         0040113c     CrisInstaller.OBJ
 0001:0000013c       __imp_@__vbaVarCat         0040113c     CrisInstaller.OBJ
 0001:00000140       __imp_@__vbaLsetFixstrFree 00401140     CrisInstaller.OBJ
 0001:00000140       __imp____vbaLsetFixstrFree 00401140     CrisInstaller.OBJ
 0001:00000144       __imp_@__vbaI2Var          00401144     CrisInstaller.OBJ
 0001:00000144       __imp____vbaI2Var          00401144     CrisInstaller.OBJ
 0001:00000148       __imp____vba@079D19B8      00401148     CrisInstaller.OBJ
 0001:00000148       __imp_@__vba@079D19B8      00401148     CrisInstaller.OBJ
 0001:0000014c       __imp___CIlog              0040114c     CrisInstaller.OBJ
 0001:00000150       __imp_@__vbaErrorOverflow  00401150     CrisInstaller.OBJ
 0001:00000150       __imp____vbaErrorOverflow  00401150     CrisInstaller.OBJ
 0001:00000154       __imp_@__vbaFileOpen       00401154     CrisInstaller.OBJ
 0001:00000154       __imp____vbaFileOpen       00401154     CrisInstaller.OBJ
 0001:00000158       __imp_@__vbaNew2           00401158     CrisInstaller.OBJ
 0001:00000158       __imp____vbaNew2           00401158     CrisInstaller.OBJ
 0001:0000015c       __imp____vbaInStr          0040115c     CrisInstaller.OBJ
 0001:0000015c       __imp_@__vbaInStr          0040115c     CrisInstaller.OBJ
 0001:00000160       __imp___adj_fdiv_m32i      00401160     CrisInstaller.OBJ
 0001:00000164       __imp___adj_fdivr_m32i     00401164     CrisInstaller.OBJ
 0001:00000168       __imp_@__vbaStrCopy        00401168     CrisInstaller.OBJ
 0001:00000168       __imp____vbaStrCopy        00401168     CrisInstaller.OBJ
 0001:0000016c       __imp____vbaI4Str          0040116c     CrisInstaller.OBJ
 0001:0000016c       __imp_@__vbaI4Str          0040116c     CrisInstaller.OBJ
 0001:00000170       __imp____vbaFreeStrList    00401170     CrisInstaller.OBJ
 0001:00000170       __imp_@__vbaFreeStrList    00401170     CrisInstaller.OBJ
 0001:00000174       __imp_@__vba@072213FC      00401174     CrisInstaller.OBJ
 0001:00000174       __imp____vba@072213FC      00401174     CrisInstaller.OBJ
 0001:00000178       __imp___adj_fdivr_m32      00401178     CrisInstaller.OBJ
 0001:0000017c       __imp_@__vbaPowerR8        0040117c     CrisInstaller.OBJ
 0001:0000017c       __imp____vbaPowerR8        0040117c     CrisInstaller.OBJ
 0001:00000180       __imp___adj_fdiv_r         00401180     CrisInstaller.OBJ
 0001:00000188       __imp_@__vbaI4Var          00401188     CrisInstaller.OBJ
 0001:00000188       __imp____vbaI4Var          00401188     CrisInstaller.OBJ
 0001:0000018c       __imp_@__vbaVarAdd         0040118c     CrisInstaller.OBJ
 0001:0000018c       __imp____vbaVarAdd         0040118c     CrisInstaller.OBJ
 0001:00000190       __imp____vbaStrToAnsi      00401190     CrisInstaller.OBJ
 0001:00000190       __imp_@__vbaStrToAnsi      00401190     CrisInstaller.OBJ
 0001:00000194       __imp____vbaVarDup         00401194     CrisInstaller.OBJ
 0001:00000194       __imp_@__vbaVarDup         00401194     CrisInstaller.OBJ
 0001:00000198       __imp_@__vba@079D177C      00401198     CrisInstaller.OBJ
 0001:00000198       __imp____vba@079D177C      00401198     CrisInstaller.OBJ
 0001:0000019c       __imp____vbaFpI2           0040119c     CrisInstaller.OBJ
 0001:0000019c       __imp_@__vbaFpI2           0040119c     CrisInstaller.OBJ
 0001:000001a0       __imp____vbaVarLateMemCallLd 004011a0     CrisInstaller.OBJ
 0001:000001a0       __imp_@__vbaVarLateMemCallLd 004011a0     CrisInstaller.OBJ
 0001:000001a4       __imp____vbaFpI4           004011a4     CrisInstaller.OBJ
 0001:000001a4       __imp_@__vbaFpI4           004011a4     CrisInstaller.OBJ
 0001:000001a8       __imp____vba@07220E70      004011a8     CrisInstaller.OBJ
 0001:000001a8       __imp_@__vba@07220E70      004011a8     CrisInstaller.OBJ
 0001:000001ac       __imp____vbaRecDestructAnsi 004011ac     CrisInstaller.OBJ
 0001:000001ac       __imp_@__vbaRecDestructAnsi 004011ac     CrisInstaller.OBJ
 0001:000001b0       __imp___CIatan             004011b0     CrisInstaller.OBJ
 0001:000001b4       __imp____vbaUI1Str         004011b4     CrisInstaller.OBJ
 0001:000001b4       __imp_@__vbaUI1Str         004011b4     CrisInstaller.OBJ
 0001:000001b8       __imp____vbaStrMove        004011b8     CrisInstaller.OBJ
 0001:000001b8       __imp_@__vbaStrMove        004011b8     CrisInstaller.OBJ
 0001:000001bc       __imp_@__vbaCastObj        004011bc     CrisInstaller.OBJ
 0001:000001bc       __imp____vbaCastObj        004011bc     CrisInstaller.OBJ
 0001:000001c0       __imp____vbaStrVarCopy     004011c0     CrisInstaller.OBJ
 0001:000001c0       __imp_@__vbaStrVarCopy     004011c0     CrisInstaller.OBJ
 0001:000001c4       __imp____vba@0721F55C      004011c4     CrisInstaller.OBJ
 0001:000001c4       __imp_@__vba@0721F55C      004011c4     CrisInstaller.OBJ
 0001:000001c8       __imp___allmul             004011c8     CrisInstaller.OBJ
 0001:000001cc       __imp____vbaLenVarB        004011cc     CrisInstaller.OBJ
 0001:000001cc       __imp_@__vbaLenVarB        004011cc     CrisInstaller.OBJ
 0001:000001d0       __imp_@__vbaLateIdSt       004011d0     CrisInstaller.OBJ
 0001:000001d0       __imp____vbaLateIdSt       004011d0     CrisInstaller.OBJ
 0001:000001d4       __imp___CItan              004011d4     CrisInstaller.OBJ
 0001:000001d8       __imp_@__vbaUI1Var         004011d8     CrisInstaller.OBJ
 0001:000001d8       __imp____vbaUI1Var         004011d8     CrisInstaller.OBJ
 0001:000001dc       __imp___CIexp              004011dc     CrisInstaller.OBJ
 0001:000001e0       __imp____vbaMidStmtBstr    004011e0     CrisInstaller.OBJ
 0001:000001e0       __imp_@__vbaMidStmtBstr    004011e0     CrisInstaller.OBJ
 0001:000001e4       __imp_@__vbaFreeObj        004011e4     CrisInstaller.OBJ
 0001:000001e4       __imp____vbaFreeObj        004011e4     CrisInstaller.OBJ
 0001:000001e8       __imp____vbaFreeStr        004011e8     CrisInstaller.OBJ
 0001:000001e8       __imp_@__vbaFreeStr        004011e8     CrisInstaller.OBJ
 0001:00000290       __real@4@bfff8000000000000000 00401290     fMain.OBJ
 0001:00000294       __real@4@3fff8000000000000000 00401294     fMain.OBJ
 0001:00000298       __real@4@40018000000000000000 00401298     fMain.OBJ
 0001:000002a0       __real@8@40008000000000000000 004012a0     fMain.OBJ
 0001:000002a8       __real@8@3fff8000000000000000 004012a8     fMain.OBJ
 0001:00000404       __real@4@40078580000000000000 00401404     fMain.OBJ
 0001:00000408       __real@4@4006f200000000000000 00401408     fMain.OBJ
 0001:0000040c       __real@4@4006ed00000000000000 0040140c     fMain.OBJ
 0001:00000410       __real@4@4006d400000000000000 00401410     fMain.OBJ
 0001:00000414       __real@4@4006cf00000000000000 00401414     fMain.OBJ
 0001:00000418       __real@4@4006b600000000000000 00401418     fMain.OBJ
 0001:0000041c       __real@4@4006b100000000000000 0040141c     fMain.OBJ
 0001:00000420       __real@4@40069800000000000000 00401420     fMain.OBJ
 0001:00000424       __real@4@4006b900000000000000 00401424     fMain.OBJ
 0001:00000428       __real@4@4006a500000000000000 00401428     fMain.OBJ
 0001:0000042c       __real@4@40088e80000000000000 0040142c     fMain.OBJ
 0001:00000430       __real@4@40088700000000000000 00401430     fMain.OBJ
 0001:00000434       __real@4@40088200000000000000 00401434     fMain.OBJ
 0001:00000438       __real@4@4007a280000000000000 00401438     fMain.OBJ
 0001:0000043c       __real@4@40079600000000000000 0040143c     fMain.OBJ
 0001:00000440       __real@4@40079380000000000000 00401440     fMain.OBJ
 0001:00000444       __real@4@40078700000000000000 00401444     fMain.OBJ
 0001:00000448       __real@4@40078480000000000000 00401448     fMain.OBJ
 0001:0000044c       __real@4@4006f000000000000000 0040144c     fMain.OBJ
 0001:00000450       __real@4@4006eb00000000000000 00401450     fMain.OBJ
 0001:00000454       __real@4@4006d200000000000000 00401454     fMain.OBJ
 0001:00000458       __real@4@4007f500000000000000 00401458     fMain.OBJ
 0001:0000045c       __real@4@4005a000000000000000 0040145c     fMain.OBJ
 0001:00000460       __real@4@4007af00000000000000 00401460     fMain.OBJ
 0001:00000464       __real@4@4007b400000000000000 00401464     fMain.OBJ
 0001:00000468       __real@4@40079d80000000000000 00401468     fMain.OBJ
 0001:0000046c       __real@4@4007c800000000000000 0040146c     fMain.OBJ
 0001:00000470       __real@4@4006be00000000000000 00401470     fMain.OBJ
 0001:00000530       __real@8@4003c800000000000000 00401530     fMain.OBJ
 0001:000008a0       ___vbaChkstk               004018a0     CrisInstaller.OBJ
 0001:000008a0       VB@TEXT                    004018a0     CrisInstaller.OBJ
 0001:000008a6       ___vbaExceptHandler        004018a6     CrisInstaller.OBJ
 0001:000008ac       ___vbaFPException          004018ac     CrisInstaller.OBJ
 0001:000008b2       __adj_fdiv_m16i            004018b2     CrisInstaller.OBJ
 0001:000008b8       __adj_fdiv_m32             004018b8     CrisInstaller.OBJ
 0001:000008be       __adj_fdiv_m32i            004018be     CrisInstaller.OBJ
 0001:000008c4       __adj_fdiv_m64             004018c4     CrisInstaller.OBJ
 0001:000008ca       __adj_fdiv_r               004018ca     CrisInstaller.OBJ
 0001:000008d0       __adj_fdivr_m16i           004018d0     CrisInstaller.OBJ
 0001:000008d6       __adj_fdivr_m32            004018d6     CrisInstaller.OBJ
 0001:000008dc       __adj_fdivr_m32i           004018dc     CrisInstaller.OBJ
 0001:000008e2       __adj_fdivr_m64            004018e2     CrisInstaller.OBJ
 0001:000008e8       __adj_fpatan               004018e8     CrisInstaller.OBJ
 0001:000008ee       __adj_fprem                004018ee     CrisInstaller.OBJ
 0001:000008f4       __adj_fprem1               004018f4     CrisInstaller.OBJ
 0001:000008fa       __adj_fptan                004018fa     CrisInstaller.OBJ
 0001:00000900       __CIatan                   00401900     CrisInstaller.OBJ
 0001:00000906       __CIcos                    00401906     CrisInstaller.OBJ
 0001:0000090c       __CIexp                    0040190c     CrisInstaller.OBJ
 0001:00000912       __CIlog                    00401912     CrisInstaller.OBJ
 0001:00000918       __CIsin                    00401918     CrisInstaller.OBJ
 0001:0000091e       __CIsqrt                   0040191e     CrisInstaller.OBJ
 0001:00000924       __CItan                    00401924     CrisInstaller.OBJ
 0001:0000092a       __allmul                   0040192a     CrisInstaller.OBJ
 0001:00000936       @__vbaRecDestruct          00401936     CrisInstaller.OBJ
 0001:00000936       ___vbaRecDestruct          00401936     CrisInstaller.OBJ
 0001:0000093c       @__vba@0721F55C            0040193c     CrisInstaller.OBJ
 0001:0000093c       ___vba@0721F55C            0040193c     CrisInstaller.OBJ
 0001:00000942       @__vbaVarTstEq             00401942     CrisInstaller.OBJ
 0001:00000942       ___vbaVarTstEq             00401942     CrisInstaller.OBJ
 0001:00000948       @__vbaInStr                00401948     CrisInstaller.OBJ
 0001:00000948       ___vbaInStr                00401948     CrisInstaller.OBJ
 0001:0000094e       ___vba@0721F628            0040194e     CrisInstaller.OBJ
 0001:0000094e       @__vba@0721F628            0040194e     CrisInstaller.OBJ
 0001:00000954       ___vbaRecDestructAnsi      00401954     CrisInstaller.OBJ
 0001:00000954       @__vbaRecDestructAnsi      00401954     CrisInstaller.OBJ
 0001:0000095a       @__vbaRecAnsiToUni         0040195a     CrisInstaller.OBJ
 0001:0000095a       ___vbaRecAnsiToUni         0040195a     CrisInstaller.OBJ
 0001:00000960       @__vbaRecUniToAnsi         00401960     CrisInstaller.OBJ
 0001:00000960       ___vbaRecUniToAnsi         00401960     CrisInstaller.OBJ
 0001:00000966       ___vbaExitProc             00401966     CrisInstaller.OBJ
 0001:00000966       @__vbaExitProc             00401966     CrisInstaller.OBJ
 0001:0000096c       @__vbaLateIdCallLd         0040196c     CrisInstaller.OBJ
 0001:0000096c       ___vbaLateIdCallLd         0040196c     CrisInstaller.OBJ
 0001:00000972       @__vbaLateIdCall           00401972     CrisInstaller.OBJ
 0001:00000972       ___vbaLateIdCall           00401972     CrisInstaller.OBJ
 0001:00000978       @__vbaLateIdSt             00401978     CrisInstaller.OBJ
 0001:00000978       ___vbaLateIdSt             00401978     CrisInstaller.OBJ
 0001:0000097e       ___vbaFileClose            0040197e     CrisInstaller.OBJ
 0001:0000097e       @__vbaFileClose            0040197e     CrisInstaller.OBJ
 0001:00000984       ___vbaLineInputStr         00401984     CrisInstaller.OBJ
 0001:00000984       @__vbaLineInputStr         00401984     CrisInstaller.OBJ
 0001:0000098a       @__vbaFileOpen             0040198a     CrisInstaller.OBJ
 0001:0000098a       ___vbaFileOpen             0040198a     CrisInstaller.OBJ
 0001:00000990       ___vba@07220D58            00401990     CrisInstaller.OBJ
 0001:00000990       @__vba@07220D58            00401990     CrisInstaller.OBJ
 0001:00000996       ___vbaStrVarMove           00401996     CrisInstaller.OBJ
 0001:00000996       @__vbaStrVarMove           00401996     CrisInstaller.OBJ
 0001:0000099c       ___vbaVarCat               0040199c     CrisInstaller.OBJ
 0001:0000099c       @__vbaVarCat               0040199c     CrisInstaller.OBJ
 0001:000009a2       ___vbaStrVarVal            004019a2     CrisInstaller.OBJ
 0001:000009a2       @__vbaStrVarVal            004019a2     CrisInstaller.OBJ
 0001:000009a8       @__vba@07220E70            004019a8     CrisInstaller.OBJ
 0001:000009a8       ___vba@07220E70            004019a8     CrisInstaller.OBJ
 0001:000009ae       @__vbaLenBstr              004019ae     CrisInstaller.OBJ
 0001:000009ae       ___vbaLenBstr              004019ae     CrisInstaller.OBJ
 0001:000009b4       ___vbaFreeObjList          004019b4     CrisInstaller.OBJ
 0001:000009b4       @__vbaFreeObjList          004019b4     CrisInstaller.OBJ
 0001:000009ba       @__vbaStrI2                004019ba     CrisInstaller.OBJ
 0001:000009ba       ___vbaStrI2                004019ba     CrisInstaller.OBJ
 0001:000009c0       ___vbaCastObj              004019c0     CrisInstaller.OBJ
 0001:000009c0       @__vbaCastObj              004019c0     CrisInstaller.OBJ
 0001:000009c6       ___vbaObjSetAddref         004019c6     CrisInstaller.OBJ
 0001:000009c6       @__vbaObjSetAddref         004019c6     CrisInstaller.OBJ
 0001:000009cc       @__vba@07221280            004019cc     CrisInstaller.OBJ
 0001:000009cc       ___vba@07221280            004019cc     CrisInstaller.OBJ
 0001:000009d2       @__vbaFpI4                 004019d2     CrisInstaller.OBJ
 0001:000009d2       ___vbaFpI4                 004019d2     CrisInstaller.OBJ
 0001:000009d8       @__vbaNew2                 004019d8     CrisInstaller.OBJ
 0001:000009d8       ___vbaNew2                 004019d8     CrisInstaller.OBJ
 0001:000009de       ___vbaVarMove              004019de     CrisInstaller.OBJ
 0001:000009de       @__vbaVarMove              004019de     CrisInstaller.OBJ
 0001:000009e4       @__vba@072213C4            004019e4     CrisInstaller.OBJ
 0001:000009e4       ___vba@072213C4            004019e4     CrisInstaller.OBJ
 0001:000009ea       ___vba@072213FC            004019ea     CrisInstaller.OBJ
 0001:000009ea       @__vba@072213FC            004019ea     CrisInstaller.OBJ
 0001:000009f0       @__vbaFreeStrList          004019f0     CrisInstaller.OBJ
 0001:000009f0       ___vbaFreeStrList          004019f0     CrisInstaller.OBJ
 0001:000009f6       ___vbaStrCat               004019f6     CrisInstaller.OBJ
 0001:000009f6       @__vbaStrCat               004019f6     CrisInstaller.OBJ
 0001:000009fc       ___vba@072214CC            004019fc     CrisInstaller.OBJ
 0001:000009fc       @__vba@072214CC            004019fc     CrisInstaller.OBJ
 0001:00000a02       @__vbaStrBool              00401a02     CrisInstaller.OBJ
 0001:00000a02       ___vbaStrBool              00401a02     CrisInstaller.OBJ
 0001:00000a08       ___vbaStrMove              00401a08     CrisInstaller.OBJ
 0001:00000a08       @__vbaStrMove              00401a08     CrisInstaller.OBJ
 0001:00000a0e       @__vba@072215EC            00401a0e     CrisInstaller.OBJ
 0001:00000a0e       ___vba@072215EC            00401a0e     CrisInstaller.OBJ
 0001:00000a14       @__vba@07221624            00401a14     CrisInstaller.OBJ
 0001:00000a14       ___vba@07221624            00401a14     CrisInstaller.OBJ
 0001:00000a1a       ___vbaVarDup               00401a1a     CrisInstaller.OBJ
 0001:00000a1a       @__vbaVarDup               00401a1a     CrisInstaller.OBJ
 0001:00000a20       ___vba@072216A4            00401a20     CrisInstaller.OBJ
 0001:00000a20       @__vba@072216A4            00401a20     CrisInstaller.OBJ
 0001:00000a26       @__vbaBoolVar              00401a26     CrisInstaller.OBJ
 0001:00000a26       ___vbaBoolVar              00401a26     CrisInstaller.OBJ
 0001:00000a2c       ___vbaGenerateBoundsError  00401a2c     CrisInstaller.OBJ
 0001:00000a2c       @__vbaGenerateBoundsError  00401a2c     CrisInstaller.OBJ
 0001:00000a32       ___vbaEnd                  00401a32     CrisInstaller.OBJ
 0001:00000a32       @__vbaEnd                  00401a32     CrisInstaller.OBJ
 0001:00000a38       @__vbaErrorOverflow        00401a38     CrisInstaller.OBJ
 0001:00000a38       ___vbaErrorOverflow        00401a38     CrisInstaller.OBJ
 0001:00000a3e       ___vbaPowerR8              00401a3e     CrisInstaller.OBJ
 0001:00000a3e       @__vbaPowerR8              00401a3e     CrisInstaller.OBJ
 0001:00000a44       @__vba@07221AD8            00401a44     CrisInstaller.OBJ
 0001:00000a44       ___vba@07221AD8            00401a44     CrisInstaller.OBJ
 0001:00000a4a       @__vbaFpI2                 00401a4a     CrisInstaller.OBJ
 0001:00000a4a       ___vbaFpI2                 00401a4a     CrisInstaller.OBJ
 0001:00000a50       ___vba@07221B58            00401a50     CrisInstaller.OBJ
 0001:00000a50       @__vba@07221B58            00401a50     CrisInstaller.OBJ
 0001:00000a56       @__vbaFreeVarList          00401a56     CrisInstaller.OBJ
 0001:00000a56       ___vbaFreeVarList          00401a56     CrisInstaller.OBJ
 0001:00000a5c       ___vbaFreeStr              00401a5c     CrisInstaller.OBJ
 0001:00000a5c       @__vbaFreeStr              00401a5c     CrisInstaller.OBJ
 0001:00000a62       ___vbaStrToUnicode         00401a62     CrisInstaller.OBJ
 0001:00000a62       @__vbaStrToUnicode         00401a62     CrisInstaller.OBJ
 0001:00000a68       @__vbaStrToAnsi            00401a68     CrisInstaller.OBJ
 0001:00000a68       ___vbaStrToAnsi            00401a68     CrisInstaller.OBJ
 0001:00000a6e       @__vba@071A16D8            00401a6e     CrisInstaller.OBJ
 0001:00000a6e       ___vba@071A16D8            00401a6e     CrisInstaller.OBJ
 0001:00000a74       ___vbaLenVarB              00401a74     CrisInstaller.OBJ
 0001:00000a74       @__vbaLenVarB              00401a74     CrisInstaller.OBJ
 0001:00000a7a       @__vbaVarLateMemSt         00401a7a     CrisInstaller.OBJ
 0001:00000a7a       ___vbaVarLateMemSt         00401a7a     CrisInstaller.OBJ
 0001:00000a80       ___vbaFreeVar              00401a80     CrisInstaller.OBJ
 0001:00000a80       @__vbaFreeVar              00401a80     CrisInstaller.OBJ
 0001:00000a86       ___vbaVarLateMemCallLd     00401a86     CrisInstaller.OBJ
 0001:00000a86       @__vbaVarLateMemCallLd     00401a86     CrisInstaller.OBJ
 0001:00000a8c       @__vbaI2Var                00401a8c     CrisInstaller.OBJ
 0001:00000a8c       ___vbaI2Var                00401a8c     CrisInstaller.OBJ
 0001:00000a92       @__vbaStrCopy              00401a92     CrisInstaller.OBJ
 0001:00000a92       ___vbaStrCopy              00401a92     CrisInstaller.OBJ
 0001:00000a98       ___vbaFreeObj              00401a98     CrisInstaller.OBJ
 0001:00000a98       @__vbaFreeObj              00401a98     CrisInstaller.OBJ
 0001:00000a9e       ___vbaHresultCheckObj      00401a9e     CrisInstaller.OBJ
 0001:00000a9e       @__vbaHresultCheckObj      00401a9e     CrisInstaller.OBJ
 0001:00000aa4       @__vbaObjSet               00401aa4     CrisInstaller.OBJ
 0001:00000aa4       ___vbaObjSet               00401aa4     CrisInstaller.OBJ
 0001:00000aaa       @__vbaUI1I4                00401aaa     CrisInstaller.OBJ
 0001:00000aaa       ___vbaUI1I4                00401aaa     CrisInstaller.OBJ
 0001:00000ab0       ___vbaUI1I2                00401ab0     CrisInstaller.OBJ
 0001:00000ab0       @__vbaUI1I2                00401ab0     CrisInstaller.OBJ
 0001:00000ab6       ___vbaSetSystemError       00401ab6     CrisInstaller.OBJ
 0001:00000ab6       @__vbaSetSystemError       00401ab6     CrisInstaller.OBJ
 0001:00000abc       ___vbaVarVargNofree        00401abc     CrisInstaller.OBJ
 0001:00000abc       @__vbaVarVargNofree        00401abc     CrisInstaller.OBJ
 0001:00000ac2       ___vbaI4Var                00401ac2     CrisInstaller.OBJ
 0001:00000ac2       @__vbaI4Var                00401ac2     CrisInstaller.OBJ
 0001:00000ac8       ___vbaOnError              00401ac8     CrisInstaller.OBJ
 0001:00000ac8       @__vbaOnError              00401ac8     CrisInstaller.OBJ
 0001:00000ace       ___vbaI2I4                 00401ace     CrisInstaller.OBJ
 0001:00000ace       @__vbaI2I4                 00401ace     CrisInstaller.OBJ
 0001:00000ad4       @__vba@079D1378            00401ad4     CrisInstaller.OBJ
 0001:00000ad4       ___vba@079D1378            00401ad4     CrisInstaller.OBJ
 0001:00000ada       ___vbaLsetFixstr           00401ada     CrisInstaller.OBJ
 0001:00000ada       @__vbaLsetFixstr           00401ada     CrisInstaller.OBJ
 0001:00000ae0       @__vbaStrVarCopy           00401ae0     CrisInstaller.OBJ
 0001:00000ae0       ___vbaStrVarCopy           00401ae0     CrisInstaller.OBJ
 0001:00000ae6       ___vbaInStrVar             00401ae6     CrisInstaller.OBJ
 0001:00000ae6       @__vbaInStrVar             00401ae6     CrisInstaller.OBJ
 0001:00000aec       @__vbaStrI4                00401aec     CrisInstaller.OBJ
 0001:00000aec       ___vbaStrI4                00401aec     CrisInstaller.OBJ
 0001:00000af2       @__vbaI4Str                00401af2     CrisInstaller.OBJ
 0001:00000af2       ___vbaI4Str                00401af2     CrisInstaller.OBJ
 0001:00000af8       @__vba@079D1578            00401af8     CrisInstaller.OBJ
 0001:00000af8       ___vba@079D1578            00401af8     CrisInstaller.OBJ
 0001:00000afe       ___vbaUI1Var               00401afe     CrisInstaller.OBJ
 0001:00000afe       @__vbaUI1Var               00401afe     CrisInstaller.OBJ
 0001:00000b04       ___vba@079D15F8            00401b04     CrisInstaller.OBJ
 0001:00000b04       @__vba@079D15F8            00401b04     CrisInstaller.OBJ
 0001:00000b0a       @__vba@079D168C            00401b0a     CrisInstaller.OBJ
 0001:00000b0a       ___vba@079D168C            00401b0a     CrisInstaller.OBJ
 0001:00000b10       ___vba@079D16C4            00401b10     CrisInstaller.OBJ
 0001:00000b10       @__vba@079D16C4            00401b10     CrisInstaller.OBJ
 0001:00000b16       ___vbaStrCmp               00401b16     CrisInstaller.OBJ
 0001:00000b16       @__vbaStrCmp               00401b16     CrisInstaller.OBJ
 0001:00000b1c       @__vba@079D1744            00401b1c     CrisInstaller.OBJ
 0001:00000b1c       ___vba@079D1744            00401b1c     CrisInstaller.OBJ
 0001:00000b22       @__vba@079D177C            00401b22     CrisInstaller.OBJ
 0001:00000b22       ___vba@079D177C            00401b22     CrisInstaller.OBJ
 0001:00000b28       ___vba@079D17B4            00401b28     CrisInstaller.OBJ
 0001:00000b28       @__vba@079D17B4            00401b28     CrisInstaller.OBJ
 0001:00000b2e       @__vbaMidStmtBstr          00401b2e     CrisInstaller.OBJ
 0001:00000b2e       ___vbaMidStmtBstr          00401b2e     CrisInstaller.OBJ
 0001:00000b34       @__vbaLsetFixstrFree       00401b34     CrisInstaller.OBJ
 0001:00000b34       ___vbaLsetFixstrFree       00401b34     CrisInstaller.OBJ
 0001:00000b3a       @__vbaFixstrConstruct      00401b3a     CrisInstaller.OBJ
 0001:00000b3a       ___vbaFixstrConstruct      00401b3a     CrisInstaller.OBJ
 0001:00000b40       @__vba@079D18EC            00401b40     CrisInstaller.OBJ
 0001:00000b40       ___vba@079D18EC            00401b40     CrisInstaller.OBJ
 0001:00000b46       ___vbaCopyBytes            00401b46     CrisInstaller.OBJ
 0001:00000b46       @__vbaCopyBytes            00401b46     CrisInstaller.OBJ
 0001:00000b4c       @__vbaUI1Str               00401b4c     CrisInstaller.OBJ
 0001:00000b4c       ___vbaUI1Str               00401b4c     CrisInstaller.OBJ
 0001:00000b52       ___vba@079D19B8            00401b52     CrisInstaller.OBJ
 0001:00000b52       @__vba@079D19B8            00401b52     CrisInstaller.OBJ
 0001:00000b58       @__vba@079D19F0            00401b58     CrisInstaller.OBJ
 0001:00000b58       ___vba@079D19F0            00401b58     CrisInstaller.OBJ
 0001:00000b5e       ___vba@079D1A28            00401b5e     CrisInstaller.OBJ
 0001:00000b5e       @__vba@079D1A28            00401b5e     CrisInstaller.OBJ
 0001:00000b64       ___vbaVarAdd               00401b64     CrisInstaller.OBJ
 0001:00000b64       @__vbaVarAdd               00401b64     CrisInstaller.OBJ
 0001:00000b84       ___vbaS                    00401b84     CrisInstaller.OBJ
 0001:00013ce0       ___vba@071A0D64            00414ce0     CrisInstaller.OBJ
 0001:00013d18       ___vba@071A1C7C            00414d18     CrisInstaller.OBJ
 0001:00014080       ___vba@071A13DC            00415080     CrisInstaller.OBJ
 0001:0001442c       ___vba@071A182C            0041542c     CrisInstaller.OBJ
 0001:000146c4       ___vba@07220474            004156c4     CrisInstaller.OBJ
 0001:00014844       ___vba@072204CC            00415844     CrisInstaller.OBJ
 0001:0001484c       ___vba@072204D8            0041584c     CrisInstaller.OBJ
 0001:00014858       ___vba@072204E8            00415858     CrisInstaller.OBJ
 0001:00014860       ___vba@072204F4            00415860     CrisInstaller.OBJ
 0001:00014868       ___vba@07220500            00415868     CrisInstaller.OBJ
 0001:00014878       ___vba@07220514            00415878     CrisInstaller.OBJ
 0001:00014888       ___vba@07220528            00415888     CrisInstaller.OBJ
 0001:00014898       ___vba@0722053C            00415898     CrisInstaller.OBJ
 0001:000148a8       ___vba@07220550            004158a8     CrisInstaller.OBJ
 0001:000148b8       ___vba@07220564            004158b8     CrisInstaller.OBJ
 0001:000148c8       ___vba@07220578            004158c8     CrisInstaller.OBJ
 0001:000148d0       ___vba@07220584            004158d0     CrisInstaller.OBJ
 0001:000148e0       ___vba@07220598            004158e0     CrisInstaller.OBJ
 0001:0001491c       ___vba@072205D8            0041591c     CrisInstaller.OBJ
 0001:00014920       ___vba@072205E0            00415920     CrisInstaller.OBJ
 0001:00014948       ___vba@0722060C            00415948     CrisInstaller.OBJ
 0001:00014958       ___vba@07220620            00415958     CrisInstaller.OBJ
 0001:0001495c       ___vba@07220628            0041595c     CrisInstaller.OBJ
 0001:00014970       ___vba@0722063C            00415970     CrisInstaller.OBJ
 0001:0001497c       ___vba@0722064C            0041597c     CrisInstaller.OBJ
 0001:00014988       ___vba@0722065C            00415988     CrisInstaller.OBJ
 0001:000149a8       ___vba@071A0914            004159a8     CrisInstaller.OBJ
 0001:000149c8       ___vba@071A094C            004159c8     CrisInstaller.OBJ
 0001:000149ec       ___vba@071A0960            004159ec     CrisInstaller.OBJ
 0001:00014a0c       ___vba@071A0998            00415a0c     CrisInstaller.OBJ
 0001:00014a18       ___vba@071A09A8            00415a18     CrisInstaller.OBJ
 0001:00014a44       ___vba@071A09C4            00415a44     CrisInstaller.OBJ
 0001:00014a64       ___vba@071A09FC            00415a64     CrisInstaller.OBJ
 0001:00014a90       ___vba@071A0A18            00415a90     CrisInstaller.OBJ
 0001:00014ab0       ___vba@071A0A50            00415ab0     CrisInstaller.OBJ
 0001:00014ac4       ___vba@071A0A68            00415ac4     CrisInstaller.OBJ
 0001:00014af0       ___vba@071A0A84            00415af0     CrisInstaller.OBJ
 0001:00014b10       ___vba@071A0ABC            00415b10     CrisInstaller.OBJ
 0001:00014b1c       ___vba@071A0ACC            00415b1c     CrisInstaller.OBJ
 0001:00014b2c       ___vba@071A0AE4            00415b2c     CrisInstaller.OBJ
 0001:00014b40       ___vba@071A0AFC            00415b40     CrisInstaller.OBJ
 0001:00014b60       ___vba@071A20CC            00415b60     CrisInstaller.OBJ
 0001:00014b80       ___vba@071A2104            00415b80     CrisInstaller.OBJ
 0001:00014bb4       ___vba@071A2128            00415bb4     CrisInstaller.OBJ
 0001:00014bd4       ___vba@071A2160            00415bd4     CrisInstaller.OBJ
 0001:00014bfc       ___vba@071A2178            00415bfc     CrisInstaller.OBJ
 0001:00014c1c       ___vba@071A21B0            00415c1c     CrisInstaller.OBJ
 0001:00014c44       ___vba@071A21C8            00415c44     CrisInstaller.OBJ
 0001:00014c60       ___vba@071A2200            00415c60     CrisInstaller.OBJ
 0001:00014c6c       ___vba@071A2210            00415c6c     CrisInstaller.OBJ
 0001:00014c78       ___vba@071A2220            00415c78     CrisInstaller.OBJ
 0001:00014cec       ___vba@071A2298            00415cec     CrisInstaller.OBJ
 0001:00014cfc       ___vba@071A22AC            00415cfc     CrisInstaller.OBJ
 0001:00014d14       ___vba@071A029C            00415d14     CrisInstaller.OBJ
 0001:00014d4c       ___vba@071A02D8            00415d4c     CrisInstaller.OBJ
 0001:00014d84       ___vba@071A0314            00415d84     CrisInstaller.OBJ
 0001:00014dbc       ___vba@071A0350            00415dbc     CrisInstaller.OBJ
 0001:00014de0       ___vba@071A0378            00415de0     CrisInstaller.OBJ
 0001:00014e08       ___vba@071A03A4            00415e08     CrisInstaller.OBJ
 0001:00014e1c       ___vba@071A03BC            00415e1c     CrisInstaller.OBJ
 0001:00014e2c       ___vba@071A03D0            00415e2c     CrisInstaller.OBJ
 0001:00014e38       ___vba@071A03E0            00415e38     CrisInstaller.OBJ
 0001:00014e4c       ___vba@071A03F8            00415e4c     CrisInstaller.OBJ
 0001:00014e5c       ___vba@071A040C            00415e5c     CrisInstaller.OBJ
 0001:00014e80       ___vba@071A0438            00415e80     CrisInstaller.OBJ
 0001:00014e8c       ___vba@071A0448            00415e8c     CrisInstaller.OBJ
 0001:00014ea4       ___vba@071A0460            00415ea4     CrisInstaller.OBJ
 0001:00014ec8       ___vba@071A0488            00415ec8     CrisInstaller.OBJ
 0001:00014ed8       ___vba@071A0F8C            00415ed8     CrisInstaller.OBJ
 0001:00014f84       ___vba@071A103C            00415f84     CrisInstaller.OBJ
 0001:00014ffc       ___vba@071A10B8            00415ffc     CrisInstaller.OBJ
 0001:00015088       ___vba@071A1148            00416088     CrisInstaller.OBJ
 0001:000150a8       ___vba@071A1170            004160a8     CrisInstaller.OBJ
 0001:000150bc       ___vba@071A3434            004160bc     CrisInstaller.OBJ
 0001:00015148       ___vba@071A34C4            00416148     CrisInstaller.OBJ
 0001:00015170       ___vba@071A34F0            00416170     CrisInstaller.OBJ
 0001:0001518c       ___vba@071A3510            0041618c     CrisInstaller.OBJ
 0001:000151c8       ___vba@071A3550            004161c8     CrisInstaller.OBJ
 0001:00015208       ___vba@071A3594            00416208     CrisInstaller.OBJ
 0001:0001521c       ___vba@071A35AC            0041621c     CrisInstaller.OBJ
 0001:00015240       ___vba@071A35D4            00416240     CrisInstaller.OBJ
 0001:0001526c       ___vba@071A3604            0041626c     CrisInstaller.OBJ
 0001:00015280       ___vba@071A3620            00416280     CrisInstaller.OBJ
 0001:00015294       ___vba@071A2DBC            00416294     CrisInstaller.OBJ
 0001:000152b8       ___vba@071A2DE4            004162b8     CrisInstaller.OBJ
 0001:000152d8       ___vba@071A2E08            004162d8     CrisInstaller.OBJ
 0001:00015300       ___vba@071A2E34            00416300     CrisInstaller.OBJ
 0001:00015324       ___vba@071A2E5C            00416324     CrisInstaller.OBJ
 0001:00015340       ___vba@071A2E7C            00416340     CrisInstaller.OBJ
 0001:00015358       ___vba@071A2E98            00416358     CrisInstaller.OBJ
 0001:00015374       ___vba@071A2EB8            00416374     CrisInstaller.OBJ
 0001:00015390       ___vba@071A2ED8            00416390     CrisInstaller.OBJ
 0001:000153ac       ___vba@071A2EF8            004163ac     CrisInstaller.OBJ
 0001:000153cc       ___vba@071A2F1C            004163cc     CrisInstaller.OBJ
 0001:000153e4       ___vba@071A2F38            004163e4     CrisInstaller.OBJ
 0001:000153f4       ___vba@071A2F4C            004163f4     CrisInstaller.OBJ
 0001:0001540c       ___vba@071A2F68            0041640c     CrisInstaller.OBJ
 0001:00015424       ___vba@071A2F88            00416424     CrisInstaller.OBJ
 0001:00015434       ___vba@071A2F9C            00416434     CrisInstaller.OBJ
 0001:00015448       ___vba@071A2FB0            00416448     CrisInstaller.OBJ
 0001:00015450       ___vba@0721E41C            00416450     CrisInstaller.OBJ
 0001:00015470       ___vba@0721E440            00416470     CrisInstaller.OBJ
 0001:00015494       ___vba@0721E468            00416494     CrisInstaller.OBJ
 0001:000154d0       ___vba@0721E4A8            004164d0     CrisInstaller.OBJ
 0001:00015510       ___vba@0721E4EC            00416510     CrisInstaller.OBJ
 0001:00015554       ___vba@0721E534            00416554     CrisInstaller.OBJ
 0001:00015594       ___vba@0721E578            00416594     CrisInstaller.OBJ
 0001:000155c8       ___vba@0721E5B0            004165c8     CrisInstaller.OBJ
 0001:000155d0       ___vba@0721E5BC            004165d0     CrisInstaller.OBJ
 0001:000155d8       ___vba@0721E5C8            004165d8     CrisInstaller.OBJ
 0001:000155e4       ___vba@0721E5D8            004165e4     CrisInstaller.OBJ
 0001:000155f0       ___vba@0721E5E8            004165f0     CrisInstaller.OBJ
 0001:00015618       ___vba@0721E644            00416618     CrisInstaller.OBJ
 0001:00015630       ___vba@0721E660            00416630     CrisInstaller.OBJ
 0001:0001563c       ___vba@0721E670            0041663c     CrisInstaller.OBJ
 0001:00015660       ___vba@0721E698            00416660     CrisInstaller.OBJ
 0001:0001568c       ___vba@0721E6C8            0041668c     CrisInstaller.OBJ
 0001:000156bc       ___vba@0721E6FC            004166bc     CrisInstaller.OBJ
 0001:00015700       ___vba@0721E744            00416700     CrisInstaller.OBJ
 0001:00015748       ___vba@0721E790            00416748     CrisInstaller.OBJ
 0001:00015794       ___vba@0721E7E0            00416794     CrisInstaller.OBJ
 0001:000157a4       ___vba@0721E7F4            004167a4     CrisInstaller.OBJ
 0001:000157c4       ___vba@0721E81C            004167c4     CrisInstaller.OBJ
 0001:000157d0       ___vba@0721E82C            004167d0     CrisInstaller.OBJ
 0001:000157e8       ___vba@071A0B3C            004167e8     CrisInstaller.OBJ
 0001:00015810       ___vba@071A0B68            00416810     CrisInstaller.OBJ
 0001:0001583c       ___vba@071A0B98            0041683c     CrisInstaller.OBJ
 0001:0001586c       ___vba@071A0BCC            0041686c     CrisInstaller.OBJ
 0001:000158a0       ___vba@071A0C04            004168a0     CrisInstaller.OBJ
 0001:000158f0       ___vba@071A0C58            004168f0     CrisInstaller.OBJ
 0001:0001592c       ___vba@071A0C98            0041692c     CrisInstaller.OBJ
 0001:0001596c       ___vba@071A0CDC            0041696c     CrisInstaller.OBJ
 0001:000159a8       ___vba@071A0D20            004169a8     CrisInstaller.OBJ
 0001:000159b8       ___vba@0721E86C            004169b8     CrisInstaller.OBJ
 0001:000159e0       ___vba@0721E898            004169e0     CrisInstaller.OBJ
 0001:00015a30       ___vba@0721E8EC            00416a30     CrisInstaller.OBJ
 0001:00015a68       ___vba@0721E928            00416a68     CrisInstaller.OBJ
 0001:00015ab4       ___vba@0721E978            00416ab4     CrisInstaller.OBJ
 0001:00015b0c       ___vba@0721E9D4            00416b0c     CrisInstaller.OBJ
 0001:00015b54       ___vba@0721EA20            00416b54     CrisInstaller.OBJ
 0001:00015b5c       ___vba@0721EA30            00416b5c     CrisInstaller.OBJ
 0001:00015b94       ___vba@0721ECBC            00416b94     CrisInstaller.OBJ
 0001:00015c4c       ___vba@0721ED78            00416c4c     CrisInstaller.OBJ
 0001:00015c60       ___vba@0721ED90            00416c60     CrisInstaller.OBJ
 0001:00015c6c       ___vba@0721EDA0            00416c6c     CrisInstaller.OBJ
 0001:00015c7c       ___vba@0721EDB0            00416c7c     CrisInstaller.OBJ
 0001:00015c8c       ___vba@0721EDC4            00416c8c     CrisInstaller.OBJ
 0001:00015cac       ___vba@0721EDD4            00416cac     CrisInstaller.OBJ
 0001:00015ccc       ___vba@0721EE0C            00416ccc     CrisInstaller.OBJ
 0001:00015cf4       ___vba@0721EE24            00416cf4     CrisInstaller.OBJ
 0001:00015d14       ___vba@0721EE5C            00416d14     CrisInstaller.OBJ
 0001:00015d3c       ___vba@0721EE74            00416d3c     CrisInstaller.OBJ
 0001:00015d5c       ___vba@0721EEE4            00416d5c     CrisInstaller.OBJ
 0001:00015d80       ___vba@0721EEF8            00416d80     CrisInstaller.OBJ
 0001:00015da0       ___vba@0721EF30            00416da0     CrisInstaller.OBJ
 0001:00015db0       ___vba@0721EF44            00416db0     CrisInstaller.OBJ
 0001:00015dd0       ___vba@0721EF54            00416dd0     CrisInstaller.OBJ
 0001:00015dec       ___vba@0721EF8C            00416dec     CrisInstaller.OBJ
 0001:00015e74       ___vba@0721F018            00416e74     CrisInstaller.OBJ
 0001:00015e84       ___vba@0721F02C            00416e84     CrisInstaller.OBJ
 0001:00015e94       ___vba@0721F040            00416e94     CrisInstaller.OBJ
 0001:00015ea4       ___vba@0721F054            00416ea4     CrisInstaller.OBJ
 0001:00015eb8       ___vba@0721F068            00416eb8     CrisInstaller.OBJ
 0001:00015ed0       ___vba@0721F084            00416ed0     CrisInstaller.OBJ
 0001:00015f00       ___vba@0721F0A4            00416f00     CrisInstaller.OBJ
 0001:00015f20       ___vba@0721F10C            00416f20     CrisInstaller.OBJ
 0001:00015f44       ___vba@0721F120            00416f44     CrisInstaller.OBJ
 0001:00015f60       ___vba@0721F158            00416f60     CrisInstaller.OBJ
 0001:00015f68       ___vba@0721F164            00416f68     CrisInstaller.OBJ
 0001:00015f78       ___vba@0721F174            00416f78     CrisInstaller.OBJ
 0001:00015f90       ___vba@0721F190            00416f90     CrisInstaller.OBJ
 0001:00015fa8       ___vba@0721F1AC            00416fa8     CrisInstaller.OBJ
 0001:00015fcc       ___vba@0721F1D4            00416fcc     CrisInstaller.OBJ
 0001:00015fe4       ___vba@0721F1F0            00416fe4     CrisInstaller.OBJ
 0001:0001600c       ___vba@0721F21C            0041700c     CrisInstaller.OBJ
 0001:00016048       ___vba@0721F25C            00417048     CrisInstaller.OBJ
 0001:00016084       ___vba@0721F29C            00417084     CrisInstaller.OBJ
 0001:000160b0       ___vba@0721F334            004170b0     CrisInstaller.OBJ
 0001:000160f0       ___vba@0721F378            004170f0     CrisInstaller.OBJ
 0001:00016124       ___vba@0721F3B0            00417124     CrisInstaller.OBJ
 0001:00016144       ___vba@0721F3D4            00417144     CrisInstaller.OBJ
 0001:00016170       ___vba@0721F404            00417170     CrisInstaller.OBJ
 0001:0001619c       ___vba@0721F434            0041719c     CrisInstaller.OBJ
 0001:000161b0       ___vba@0721F44C            004171b0     CrisInstaller.OBJ
 0001:000161d0       ___vba@0721F470            004171d0     CrisInstaller.OBJ
 0001:000161f4       ___vba@0721F498            004171f4     CrisInstaller.OBJ
 0001:00016218       ___vba@0721F4C0            00417218     CrisInstaller.OBJ
 0001:00016220       ___vba@0721F4CC            00417220     CrisInstaller.OBJ
 0001:00016224       ___vba@0721F4D8            00417224     CrisInstaller.OBJ
 0001:00016230       ___vba@0721F4E8            00417230     CrisInstaller.OBJ
 0001:00016244       ___vba@0721F500            00417244     CrisInstaller.OBJ
 0001:00016254       ___vba@0721F514            00417254     CrisInstaller.OBJ
 0001:00016270       ___vba@0721F594            00417270     CrisInstaller.OBJ
 0001:00016280       ___vba@0721F5E0            00417280     CrisInstaller.OBJ
 0001:0001628c       ___vba@0721F660            0041728c     CrisInstaller.OBJ
 0001:000162a4       ___vba@0721F6B4            004172a4     CrisInstaller.OBJ
 0001:000162b8       ___vba@0721F704            004172b8     CrisInstaller.OBJ
 0001:000162cc       ___vba@0721EACC            004172cc     CrisInstaller.OBJ
 0001:000162e0       ___vba@0721EB1C            004172e0     CrisInstaller.OBJ
 0001:000162f0       ___vba@0721EB68            004172f0     CrisInstaller.OBJ
 0001:00016300       ___vba@0721EBB4            00417300     CrisInstaller.OBJ
 0001:00016310       ___vba@0721EC00            00417310     CrisInstaller.OBJ
 0001:00016324       ___vba@0721EC50            00417324     CrisInstaller.OBJ
 0001:00016338       ___vba@0721EC64            00417338     CrisInstaller.OBJ
 0001:00016348       ___vba@0721EC78            00417348     CrisInstaller.OBJ
 0001:00016358       ___vba@07220D90            00417358     CrisInstaller.OBJ
 0001:00016368       ___vba@07220DDC            00417368     CrisInstaller.OBJ
 0001:00016374       ___vba@07220E24            00417374     CrisInstaller.OBJ
 0001:00016384       ___vba@07220EA8            00417384     CrisInstaller.OBJ
 0001:00016394       ___vba@07220EF4            00417394     CrisInstaller.OBJ
 0001:000163a8       ___vba@0722119C            004173a8     CrisInstaller.OBJ
 0001:000163b4       ___vba@072211E4            004173b4     CrisInstaller.OBJ
 0001:000163c4       ___vba@07221230            004173c4     CrisInstaller.OBJ
 0001:000163d8       ___vba@072212B8            004173d8     CrisInstaller.OBJ
 0001:000163e4       ___vba@07221300            004173e4     CrisInstaller.OBJ
 0001:000163f0       ___vba@07221348            004173f0     CrisInstaller.OBJ
 0001:00016400       ___vba@07221434            00417400     CrisInstaller.OBJ
 0001:00016414       ___vba@07221484            00417414     CrisInstaller.OBJ
 0001:00016420       ___vba@07221504            00417420     CrisInstaller.OBJ
 0001:00016430       ___vba@07221550            00417430     CrisInstaller.OBJ
 0001:00016444       ___vba@07221564            00417444     CrisInstaller.OBJ
 0001:00016454       ___vba@07221578            00417454     CrisInstaller.OBJ
 0001:00016460       ___vba@0722165C            00417460     CrisInstaller.OBJ
 0001:0001646c       ___vba@072216DC            0041746c     CrisInstaller.OBJ
 0001:0001647c       ___vba@07221728            0041747c     CrisInstaller.OBJ
 0001:00016498       ___vba@07221780            00417498     CrisInstaller.OBJ
 0001:000164a4       ___vba@07221790            004174a4     CrisInstaller.OBJ
 0001:000164bc       ___vba@07221A3C            004174bc     CrisInstaller.OBJ
 0001:000164d0       ___vba@07221A8C            004174d0     CrisInstaller.OBJ
 0001:000164e0       ___vba@07221B10            004174e0     CrisInstaller.OBJ
 0001:000164ec       ___vba@07221B90            004174ec     CrisInstaller.OBJ
 0001:00016500       ___vba@07221BE0            00417500     CrisInstaller.OBJ
 0001:00016510       ___vba@07221BF4            00417510     CrisInstaller.OBJ
 0001:0001651c       ___vba@071A163C            0041751c     CrisInstaller.OBJ
 0001:00016530       ___vba@071A168C            00417530     CrisInstaller.OBJ
 0001:00016540       ___vba@071A1710            00417540     CrisInstaller.OBJ
 0001:00016550       ___vba@071A175C            00417550     CrisInstaller.OBJ
 0001:00016564       ___vba@071A17AC            00417564     CrisInstaller.OBJ
 0001:00016574       ___vba@07221C64            00417574     CrisInstaller.OBJ
 0001:00016580       ___vba@07221CAC            00417580     CrisInstaller.OBJ
 0001:00016590       ___vba@07221CF8            00417590     CrisInstaller.OBJ
 0001:000165a0       ___vba@07221D44            004175a0     CrisInstaller.OBJ
 0001:000165b8       ___vba@07221D98            004175b8     CrisInstaller.OBJ
 0001:000165c4       ___vba@07221DE0            004175c4     CrisInstaller.OBJ
 0001:000165d0       ___vba@07221E8C            004175d0     CrisInstaller.OBJ
 0001:000165e4       ___vba@07221EDC            004175e4     CrisInstaller.OBJ
 0001:000165f8       ___vba@07221F2C            004175f8     CrisInstaller.OBJ
 0001:00016604       ___vba@07221F74            00417604     CrisInstaller.OBJ
 0001:00016614       ___vba@07221FC0            00417614     CrisInstaller.OBJ
 0001:00016624       ___vba@07222008            00417624     CrisInstaller.OBJ
 0001:00016628       ___vba@07222014            00417628     CrisInstaller.OBJ
 0001:00016644       ___vba@07222030            00417644     CrisInstaller.OBJ
 0001:0001665c       ___vba@079D123C            0041765c     CrisInstaller.OBJ
 0001:00016674       ___vba@079D1258            00417674     CrisInstaller.OBJ
 0001:0001667c       ___vba@079D1264            0041767c     CrisInstaller.OBJ
 0001:00016684       ___vba@079D1270            00417684     CrisInstaller.OBJ
 0001:00016688       ___vba@079D127C            00417688     CrisInstaller.OBJ
 0001:000166a4       ___vba@079D1298            004176a4     CrisInstaller.OBJ
 0001:000166ac       ___vba@079D12A4            004176ac     CrisInstaller.OBJ
 0001:000166e8       ___vba@079D12E4            004176e8     CrisInstaller.OBJ
 0001:00016704       ___vba@079D1304            00417704     CrisInstaller.OBJ
 0001:0001670c       ___vba@079D1310            0041770c     CrisInstaller.OBJ
 0001:00016750       ___vba@079D135C            00417750     CrisInstaller.OBJ
 0001:00016768       ___vba@079D13B0            00417768     CrisInstaller.OBJ
 0001:00016778       ___vba@079D13FC            00417778     CrisInstaller.OBJ
 0001:00016788       ___vba@079D149C            00417788     CrisInstaller.OBJ
 0001:00016798       ___vba@079D14E8            00417798     CrisInstaller.OBJ
 0001:000167a4       ___vba@079D1530            004177a4     CrisInstaller.OBJ
 0001:000167b0       ___vba@079D15B0            004177b0     CrisInstaller.OBJ
 0001:000167bc       ___vba@079D1630            004177bc     CrisInstaller.OBJ
 0001:000167d4       ___vba@079D16FC            004177d4     CrisInstaller.OBJ
 0001:000167e0       ___vba@079D17EC            004177e0     CrisInstaller.OBJ
 0001:000167f4       ___vba@079D183C            004177f4     CrisInstaller.OBJ
 0001:00016808       ___vba@079D1924            00417808     CrisInstaller.OBJ
 0001:00016818       ___vba@079D1970            00417818     CrisInstaller.OBJ
 0001:00016824       ___vba@079D1A60            00417824     CrisInstaller.OBJ
 0001:0001697c       ___vba@071A0074            0041797c     CrisInstaller.OBJ
 0001:000169bc       ___vba@071A1A54            004179bc     CrisInstaller.OBJ
 0001:00016a58       ___vba@0722024C            00417a58     CrisInstaller.OBJ
 0001:00016a80       ___vba@07220278            00417a80     CrisInstaller.OBJ
 0001:00016a8c       ___vba@07220288            00417a8c     CrisInstaller.OBJ
 0001:00016a98       ___vba@07220298            00417a98     CrisInstaller.OBJ
 0001:00016a9c       ___vba@072202A0            00417a9c     CrisInstaller.OBJ
 0001:00016aa0       ___vba@072202A8            00417aa0     CrisInstaller.OBJ
 0001:00016aa4       ___vba@072202B0            00417aa4     CrisInstaller.OBJ
 0001:00016aac       ___vba@072202BC            00417aac     CrisInstaller.OBJ
 0001:00016ab4       ___vba@072202C8            00417ab4     CrisInstaller.OBJ
 0001:00016b40       VB@BTXT                    00417b40     CrisInstaller.OBJ
 0001:00016b50       ?CreateTransparentWindowStyle@fMain@@AAGXXZ 00417b50 f   fMain.OBJ
 0001:00016c30       ?WindowTransparency@fMain@@AAGXXZ 00417c30 f   fMain.OBJ
 0001:00016d40       ?Form_Load@fMain@@AAGXXZ   00417d40 f   fMain.OBJ
 0001:00016e00       ?TextPrint@fMain@@AAGXXZ   00417e00 f   fMain.OBJ
 0001:00017020       ?RandomColor@fMain@@AAGXXZ 00418020 f   fMain.OBJ
 0001:00017430       ?Form_MouseDown@fMain@@AAGXXZ 00418430 f   fMain.OBJ
 0001:00018320       ?ExitTemp@fMain@@AAGXXZ    00419320 f   fMain.OBJ
 0001:00018430       ?ShowMSG@fMain@@AAGXXZ     00419430 f   fMain.OBJ
 0001:00018450       ?Install_@fMain@@AAGXXZ    00419450 f   fMain.OBJ
 0001:000189a0       ?ChangeOP@fMain@@AAGXXZ    004199a0 f   fMain.OBJ
 0001:00018a60       ?Tx_Timer@fMain@@AAGXXZ    00419a60 f   fMain.OBJ
 0001:0001bbf0       ?StartSet@fMain@@AAGXXZ    0041cbf0 f   fMain.OBJ
 0001:0001c3c0       ?OpenInstall@fMain@@AAGXXZ 0041d3c0 f   fMain.OBJ
 0001:0001c760       ?OpenDialog@fMain@@AAGXXZ  0041d760 f   fMain.OBJ
 0001:0001ca20       ?Unzip@UnzipModule@@AAGXXZ 0041da20 f   UnzipModule.OBJ
 0001:0001cb60       ?Unzip@fcopy@@AAGXXZ       0041db60 f   fcopy.OBJ
 0001:0001cd80       ?Form_Load@fcopy@@AAGXXZ   0041dd80 f   fcopy.OBJ
 0001:0001ce50       ?FnPtr@UnzipM@@AAGXXZ      0041de50 f   unZip.OBJ
 0001:0001ce60       ?UZReceiveDLLMessage@UnzipM@@AAGXXZ 0041de60 f   unZip.OBJ
 0001:0001d6e0       ?UZDLLPrnt@UnzipM@@AAGXXZ  0041e6e0 f   unZip.OBJ
 0001:0001d970       ?UZDLLServ@UnzipM@@AAGXXZ  0041e970 f   unZip.OBJ
 0001:0001db40       ?UZDLLPass@UnzipM@@AAGXXZ  0041eb40 f   unZip.OBJ
 0001:0001e0d0       ?UZDLLRep@UnzipM@@AAGXXZ   0041f0d0 f   unZip.OBJ
 0001:0001e430       ?VBUnzip@UnzipM@@AAGXXZ    0041f430 f   unZip.OBJ
 0001:0001e730       VB@ETXT                    0041f730     CrisInstaller.OBJ
 0002:00000000       __adjust_fdiv              00420000     VBAEXE6:natsupp.obj
 0002:00000008       VB@BSS                     00420008     CrisInstaller.OBJ
 0002:00000010       ___vba@072208E0            00420010     CrisInstaller.OBJ
 0002:00000024       _UnzipModule               00420024     CrisInstaller.OBJ
 0002:0000008c       _UnzipM                    0042008c     CrisInstaller.OBJ
 0002:0000047c       ___vba@072208F8            0042047c     CrisInstaller.OBJ
 0002:000008fc       ___vba@07220D4C            004208fc     CrisInstaller.OBJ
 0002:00000914       ___vba@071A4FAC            00420914     CrisInstaller.OBJ
 0002:00001020       ___vba@071A405C            00421020     CrisInstaller.OBJ

 entry point at        0001:00000b84

 Static symbols

