 G

 Timestamp is 520621b2 (Sat Aug 10 20:19:14 2013)

 Preferred load address is 00400000

 Start         Length     Name                   Class
 0001:00000000 000000f8H .idata$5                CODE
 0001:000000f8 000000a8H .rdata                  CODE
 0001:000001a0 000015f4H .text                   CODE
 0001:000017a0 00000004H .text$0                 CODE
 0001:000017b0 000014e0H .text$1                 CODE
 0001:00002c90 00000004H .text$2                 CODE
 0001:00002c94 00000014H .idata$2                CODE
 0001:00002ca8 00000014H .idata$3                CODE
 0001:00002cbc 000000f8H .idata$4                CODE
 0001:00002db4 000003a0H .idata$6                CODE
 0001:00003154 00000000H .edata                  CODE
 0002:00000000 00000004H .data                   DATA
 0002:00000008 00000bd8H .bss                    DATA
 0003:00000000 00000148H .rsrc$01                DATA
 0003:00000150 00000760H .rsrc$02                DATA

  Address         Publics by Value              Rva+Base     Lib:Object

 0001:00000000       __imp____vbaVarTstGt       00401000     G.OBJ
 0001:00000000       __imp_@__vbaVarTstGt       00401000     G.OBJ
 0001:00000004       __imp____vbaVarSub         00401004     G.OBJ
 0001:00000004       __imp_@__vbaVarSub         00401004     G.OBJ
 0001:00000008       __imp___CIcos              00401008     G.OBJ
 0001:0000000c       __imp___adj_fptan          0040100c     G.OBJ
 0001:00000010       __imp____vbaStrI4          00401010     G.OBJ
 0001:00000010       __imp_@__vbaStrI4          00401010     G.OBJ
 0001:00000014       __imp____vbaVarMove        00401014     G.OBJ
 0001:00000014       __imp_@__vbaVarMove        00401014     G.OBJ
 0001:00000018       __imp____vbaFreeVar        00401018     G.OBJ
 0001:00000018       __imp_@__vbaFreeVar        00401018     G.OBJ
 0001:0000001c       __imp____vbaEnd            0040101c     G.OBJ
 0001:0000001c       __imp_@__vbaEnd            0040101c     G.OBJ
 0001:00000020       __imp_@__vbaFreeVarList    00401020     G.OBJ
 0001:00000020       __imp____vbaFreeVarList    00401020     G.OBJ
 0001:00000024       __imp___adj_fdiv_m64       00401024     G.OBJ
 0001:00000028       __imp___adj_fprem1         00401028     G.OBJ
 0001:0000002c       __imp____vbaSetSystemError 0040102c     G.OBJ
 0001:0000002c       __imp_@__vbaSetSystemError 0040102c     G.OBJ
 0001:00000030       __imp_@__vbaHresultCheckObj 00401030     G.OBJ
 0001:00000030       __imp____vbaHresultCheckObj 00401030     G.OBJ
 0001:00000034       __imp___adj_fdiv_m32       00401034     G.OBJ
 0001:00000038       __imp____vba@05AA41A0      00401038     G.OBJ
 0001:00000038       __imp_@__vba@05AA41A0      00401038     G.OBJ
 0001:0000003c       __imp_@__vbaVarForInit     0040103c     G.OBJ
 0001:0000003c       __imp____vbaVarForInit     0040103c     G.OBJ
 0001:00000040       __imp_@__vba@05AA42DC      00401040     G.OBJ
 0001:00000040       __imp____vba@05AA42DC      00401040     G.OBJ
 0001:00000044       __imp___adj_fdiv_m16i      00401044     G.OBJ
 0001:00000048       __imp___adj_fdivr_m16i     00401048     G.OBJ
 0001:0000004c       __imp_@__vbaVarTstLt       0040104c     G.OBJ
 0001:0000004c       __imp____vbaVarTstLt       0040104c     G.OBJ
 0001:00000050       __imp___CIsin              00401050     G.OBJ
 0001:00000054       __imp____vbaChkstk         00401054     G.OBJ
 0001:0000005c       __imp_@__vbaGenerateBoundsError 0040105c     G.OBJ
 0001:0000005c       __imp____vbaGenerateBoundsError 0040105c     G.OBJ
 0001:00000064       __imp___adj_fpatan         00401064     G.OBJ
 0001:00000068       __imp_@__vbaStrR8          00401068     G.OBJ
 0001:00000068       __imp____vbaStrR8          00401068     G.OBJ
 0001:00000070       __imp___CIsqrt             00401070     G.OBJ
 0001:00000078       __imp____vbaVarMul         00401078     G.OBJ
 0001:00000078       __imp_@__vbaVarMul         00401078     G.OBJ
 0001:0000007c       __imp____vbaExceptHandler  0040107c     G.OBJ
 0001:00000080       __imp_@__vbaStrToUnicode   00401080     G.OBJ
 0001:00000080       __imp____vbaStrToUnicode   00401080     G.OBJ
 0001:00000084       __imp___adj_fprem          00401084     G.OBJ
 0001:00000088       __imp___adj_fdivr_m64      00401088     G.OBJ
 0001:0000008c       __imp____vbaFPException    0040108c     G.OBJ
 0001:00000090       __imp_@__vba@05AA43F8      00401090     G.OBJ
 0001:00000090       __imp____vba@05AA43F8      00401090     G.OBJ
 0001:00000094       __imp____vbaI2Var          00401094     G.OBJ
 0001:00000094       __imp_@__vbaI2Var          00401094     G.OBJ
 0001:00000098       __imp___CIlog              00401098     G.OBJ
 0001:0000009c       __imp____vbaErrorOverflow  0040109c     G.OBJ
 0001:0000009c       __imp_@__vbaErrorOverflow  0040109c     G.OBJ
 0001:000000a0       __imp____vbaNew2           004010a0     G.OBJ
 0001:000000a0       __imp_@__vbaNew2           004010a0     G.OBJ
 0001:000000a4       __imp___adj_fdiv_m32i      004010a4     G.OBJ
 0001:000000a8       __imp___adj_fdivr_m32i     004010a8     G.OBJ
 0001:000000ac       __imp_@__vbaStrCopy        004010ac     G.OBJ
 0001:000000ac       __imp____vbaStrCopy        004010ac     G.OBJ
 0001:000000b0       __imp___adj_fdivr_m32      004010b0     G.OBJ
 0001:000000b4       __imp_@__vbaPowerR8        004010b4     G.OBJ
 0001:000000b4       __imp____vbaPowerR8        004010b4     G.OBJ
 0001:000000b8       __imp___adj_fdiv_r         004010b8     G.OBJ
 0001:000000c0       __imp_@__vbaI4Var          004010c0     G.OBJ
 0001:000000c0       __imp____vbaI4Var          004010c0     G.OBJ
 0001:000000c4       __imp_@__vbaStrToAnsi      004010c4     G.OBJ
 0001:000000c4       __imp____vbaStrToAnsi      004010c4     G.OBJ
 0001:000000c8       __imp_@__vbaFpI2           004010c8     G.OBJ
 0001:000000c8       __imp____vbaFpI2           004010c8     G.OBJ
 0001:000000cc       __imp____vbaFpI4           004010cc     G.OBJ
 0001:000000cc       __imp_@__vbaFpI4           004010cc     G.OBJ
 0001:000000d0       __imp___CIatan             004010d0     G.OBJ
 0001:000000d4       __imp_@__vbaStrMove        004010d4     G.OBJ
 0001:000000d4       __imp____vbaStrMove        004010d4     G.OBJ
 0001:000000d8       __imp___allmul             004010d8     G.OBJ
 0001:000000dc       __imp____vbaLenVarB        004010dc     G.OBJ
 0001:000000dc       __imp_@__vbaLenVarB        004010dc     G.OBJ
 0001:000000e0       __imp___CItan              004010e0     G.OBJ
 0001:000000e4       __imp_@__vbaFPInt          004010e4     G.OBJ
 0001:000000e4       __imp____vbaFPInt          004010e4     G.OBJ
 0001:000000e8       __imp____vbaVarForNext     004010e8     G.OBJ
 0001:000000e8       __imp_@__vbaVarForNext     004010e8     G.OBJ
 0001:000000ec       __imp___CIexp              004010ec     G.OBJ
 0001:000000f0       __imp_@__vbaFreeStr        004010f0     G.OBJ
 0001:000000f0       __imp____vbaFreeStr        004010f0     G.OBJ
 0001:00000108       __real@4@4006fa00000000000000 00401108     Form1.OBJ
 0001:0000010c       __real@4@4006af00000000000000 0040110c     Form1.OBJ
 0001:00000110       __real@4@40069600000000000000 00401110     Form1.OBJ
 0001:00000114       __real@4@40059600000000000000 00401114     Form1.OBJ
 0001:00000118       __real@4@4007e100000000000000 00401118     Form1.OBJ
 0001:0000011c       __real@4@40079600000000000000 0040111c     Form1.OBJ
 0001:00000130       __real@8@4003a000000000000000 00401130     Form1.OBJ
 0001:00000148       __real@8@40008000000000000000 00401148     Form1.OBJ
 0001:00000150       __real@8@40029cccccccccccd000 00401150     Form1.OBJ
 0001:00000158       __real@8@00000000000000000000 00401158     Form1.OBJ
 0001:00000160       __real@8@3fff8000000000000000 00401160     Form1.OBJ
 0001:00000168       __real@4@4005c800000000000000 00401168     Form1.OBJ
 0001:000001a0       VB@TEXT                    004011a0     G.OBJ
 0001:000001a0       ___vbaChkstk               004011a0     G.OBJ
 0001:000001a6       ___vbaExceptHandler        004011a6     G.OBJ
 0001:000001ac       ___vbaFPException          004011ac     G.OBJ
 0001:000001b2       __adj_fdiv_m16i            004011b2     G.OBJ
 0001:000001b8       __adj_fdiv_m32             004011b8     G.OBJ
 0001:000001be       __adj_fdiv_m32i            004011be     G.OBJ
 0001:000001c4       __adj_fdiv_m64             004011c4     G.OBJ
 0001:000001ca       __adj_fdiv_r               004011ca     G.OBJ
 0001:000001d0       __adj_fdivr_m16i           004011d0     G.OBJ
 0001:000001d6       __adj_fdivr_m32            004011d6     G.OBJ
 0001:000001dc       __adj_fdivr_m32i           004011dc     G.OBJ
 0001:000001e2       __adj_fdivr_m64            004011e2     G.OBJ
 0001:000001e8       __adj_fpatan               004011e8     G.OBJ
 0001:000001ee       __adj_fprem                004011ee     G.OBJ
 0001:000001f4       __adj_fprem1               004011f4     G.OBJ
 0001:000001fa       __adj_fptan                004011fa     G.OBJ
 0001:00000200       __CIatan                   00401200     G.OBJ
 0001:00000206       __CIcos                    00401206     G.OBJ
 0001:0000020c       __CIexp                    0040120c     G.OBJ
 0001:00000212       __CIlog                    00401212     G.OBJ
 0001:00000218       __CIsin                    00401218     G.OBJ
 0001:0000021e       __CIsqrt                   0040121e     G.OBJ
 0001:00000224       __CItan                    00401224     G.OBJ
 0001:0000022a       __allmul                   0040122a     G.OBJ
 0001:00000236       @__vbaPowerR8              00401236     G.OBJ
 0001:00000236       ___vbaPowerR8              00401236     G.OBJ
 0001:0000023c       ___vbaFreeVarList          0040123c     G.OBJ
 0001:0000023c       @__vbaFreeVarList          0040123c     G.OBJ
 0001:00000242       @__vbaVarTstLt             00401242     G.OBJ
 0001:00000242       ___vbaVarTstLt             00401242     G.OBJ
 0001:00000248       @__vbaVarMul               00401248     G.OBJ
 0001:00000248       ___vbaVarMul               00401248     G.OBJ
 0001:0000024e       ___vbaVarSub               0040124e     G.OBJ
 0001:0000024e       @__vbaVarSub               0040124e     G.OBJ
 0001:00000254       @__vbaI2Var                00401254     G.OBJ
 0001:00000254       ___vbaI2Var                00401254     G.OBJ
 0001:0000025a       ___vbaVarTstGt             0040125a     G.OBJ
 0001:0000025a       @__vbaVarTstGt             0040125a     G.OBJ
 0001:00000260       @__vbaFPInt                00401260     G.OBJ
 0001:00000260       ___vbaFPInt                00401260     G.OBJ
 0001:00000266       @__vbaVarMove              00401266     G.OBJ
 0001:00000266       ___vbaVarMove              00401266     G.OBJ
 0001:0000026c       ___vbaVarForNext           0040126c     G.OBJ
 0001:0000026c       @__vbaVarForNext           0040126c     G.OBJ
 0001:00000272       @__vbaI4Var                00401272     G.OBJ
 0001:00000272       ___vbaI4Var                00401272     G.OBJ
 0001:00000278       ___vbaVarForInit           00401278     G.OBJ
 0001:00000278       @__vbaVarForInit           00401278     G.OBJ
 0001:0000027e       ___vbaSetSystemError       0040127e     G.OBJ
 0001:0000027e       @__vbaSetSystemError       0040127e     G.OBJ
 0001:00000284       @__vbaStrI4                00401284     G.OBJ
 0001:00000284       ___vbaStrI4                00401284     G.OBJ
 0001:0000028a       ___vbaFreeStr              0040128a     G.OBJ
 0001:0000028a       @__vbaFreeStr              0040128a     G.OBJ
 0001:00000290       @__vbaStrR8                00401290     G.OBJ
 0001:00000290       ___vbaStrR8                00401290     G.OBJ
 0001:00000296       @__vbaStrMove              00401296     G.OBJ
 0001:00000296       ___vbaStrMove              00401296     G.OBJ
 0001:0000029c       @__vbaHresultCheckObj      0040129c     G.OBJ
 0001:0000029c       ___vbaHresultCheckObj      0040129c     G.OBJ
 0001:000002a2       ___vbaNew2                 004012a2     G.OBJ
 0001:000002a2       @__vbaNew2                 004012a2     G.OBJ
 0001:000002a8       @__vbaErrorOverflow        004012a8     G.OBJ
 0001:000002a8       ___vbaErrorOverflow        004012a8     G.OBJ
 0001:000002ae       @__vba@05AA41A0            004012ae     G.OBJ
 0001:000002ae       ___vba@05AA41A0            004012ae     G.OBJ
 0001:000002b4       @__vbaFpI4                 004012b4     G.OBJ
 0001:000002b4       ___vbaFpI4                 004012b4     G.OBJ
 0001:000002ba       ___vbaGenerateBoundsError  004012ba     G.OBJ
 0001:000002ba       @__vbaGenerateBoundsError  004012ba     G.OBJ
 0001:000002c0       @__vbaFreeVar              004012c0     G.OBJ
 0001:000002c0       ___vbaFreeVar              004012c0     G.OBJ
 0001:000002c6       ___vba@05AA42DC            004012c6     G.OBJ
 0001:000002c6       @__vba@05AA42DC            004012c6     G.OBJ
 0001:000002cc       ___vbaEnd                  004012cc     G.OBJ
 0001:000002cc       @__vbaEnd                  004012cc     G.OBJ
 0001:000002d2       @__vbaStrToUnicode         004012d2     G.OBJ
 0001:000002d2       ___vbaStrToUnicode         004012d2     G.OBJ
 0001:000002d8       @__vbaStrToAnsi            004012d8     G.OBJ
 0001:000002d8       ___vbaStrToAnsi            004012d8     G.OBJ
 0001:000002de       @__vba@05AA43F8            004012de     G.OBJ
 0001:000002de       ___vba@05AA43F8            004012de     G.OBJ
 0001:000002e4       ___vbaLenVarB              004012e4     G.OBJ
 0001:000002e4       @__vbaLenVarB              004012e4     G.OBJ
 0001:000002ea       @__vbaFpI2                 004012ea     G.OBJ
 0001:000002ea       ___vbaFpI2                 004012ea     G.OBJ
 0001:000002f0       @__vbaStrCopy              004012f0     G.OBJ
 0001:000002f0       ___vbaStrCopy              004012f0     G.OBJ
 0001:00000310       ___vbaS                    00401310     G.OBJ
 0001:0000051c       ___vba@00702DB4            0040151c     G.OBJ
 0001:0000068c       ___vba@00701E9C            0040168c     G.OBJ
 0001:00000ac0       ___vba@05AA2AEC            00401ac0     G.OBJ
 0001:00000b90       ___vba@05AA2B44            00401b90     G.OBJ
 0001:00000b98       ___vba@05AA2B50            00401b98     G.OBJ
 0001:00000b9c       ___vba@05AA2B58            00401b9c     G.OBJ
 0001:00000ba8       ___vba@05AA2B68            00401ba8     G.OBJ
 0001:00000bb8       ___vba@05AA2B7C            00401bb8     G.OBJ
 0001:00000bc8       ___vba@05AA2B90            00401bc8     G.OBJ
 0001:00000bd8       ___vba@05AA2BA4            00401bd8     G.OBJ
 0001:00000be8       ___vba@05AA2BB8            00401be8     G.OBJ
 0001:00000bf8       ___vba@05AA2BCC            00401bf8     G.OBJ
 0001:00000c00       ___vba@05AA2BD8            00401c00     G.OBJ
 0001:00000c10       ___vba@05AA2BEC            00401c10     G.OBJ
 0001:00000c4c       ___vba@05AA2C2C            00401c4c     G.OBJ
 0001:00000c50       ___vba@05AA2C34            00401c50     G.OBJ
 0001:00000c78       ___vba@05AA2C60            00401c78     G.OBJ
 0001:00000c88       ___vba@05AA2C74            00401c88     G.OBJ
 0001:00000c90       ___vba@05AA2C80            00401c90     G.OBJ
 0001:00000ca0       ___vba@05AA2C94            00401ca0     G.OBJ
 0001:00000cac       ___vba@05AA2CA4            00401cac     G.OBJ
 0001:00000cb8       ___vba@05AA2CB4            00401cb8     G.OBJ
 0001:00000cc4       ___vba@05AA2CC4            00401cc4     G.OBJ
 0001:00000cd0       ___vba@05AA2CD4            00401cd0     G.OBJ
 0001:00000cdc       ___vba@00704E0C            00401cdc     G.OBJ
 0001:00000cf4       ___vba@00704E28            00401cf4     G.OBJ
 0001:00000d04       ___vba@00704E38            00401d04     G.OBJ
 0001:00000d14       ___vba@00704E4C            00401d14     G.OBJ
 0001:00000d3c       ___vba@00704E64            00401d3c     G.OBJ
 0001:00000d5c       ___vba@00704E9C            00401d5c     G.OBJ
 0001:00000d68       ___vba@00704EAC            00401d68     G.OBJ
 0001:00000d94       ___vba@00704EC8            00401d94     G.OBJ
 0001:00000db4       ___vba@00704F00            00401db4     G.OBJ
 0001:00000ddc       ___vba@00704F18            00401ddc     G.OBJ
 0001:00000dfc       ___vba@00704F50            00401dfc     G.OBJ
 0001:00000e20       ___vba@00704F64            00401e20     G.OBJ
 0001:00000e40       ___vba@00704F9C            00401e40     G.OBJ
 0001:00000e50       ___vba@00704FB0            00401e50     G.OBJ
 0001:00000e7c       ___vba@00704FCC            00401e7c     G.OBJ
 0001:00000e9c       ___vba@05AA2D14            00401e9c     G.OBJ
 0001:00000ec8       ___vba@05AA2D30            00401ec8     G.OBJ
 0001:00000ee8       ___vba@05AA2D68            00401ee8     G.OBJ
 0001:00000ef4       ___vba@05AA2D78            00401ef4     G.OBJ
 0001:00000f1c       ___vba@05AA2D90            00401f1c     G.OBJ
 0001:00000f3c       ___vba@05AA2DC8            00401f3c     G.OBJ
 0001:00000f64       ___vba@05AA2DE0            00401f64     G.OBJ
 0001:00000f84       ___vba@05AA2E18            00401f84     G.OBJ
 0001:00000fa4       ___vba@05AA2E28            00401fa4     G.OBJ
 0001:00000fc4       ___vba@05AA2E60            00401fc4     G.OBJ
 0001:00000fe8       ___vba@05AA2E74            00401fe8     G.OBJ
 0001:00001008       ___vba@05AA2EAC            00402008     G.OBJ
 0001:0000102c       ___vba@05AA2EC0            0040202c     G.OBJ
 0001:0000104c       ___vba@05AA2EF8            0040204c     G.OBJ
 0001:00001070       ___vba@05AA3164            00402070     G.OBJ
 0001:00001090       ___vba@05AA319C            00402090     G.OBJ
 0001:000010b4       ___vba@05AA31B0            004020b4     G.OBJ
 0001:000010d4       ___vba@05AA31E8            004020d4     G.OBJ
 0001:000010f8       ___vba@05AA31FC            004020f8     G.OBJ
 0001:00001118       ___vba@05AA3234            00402118     G.OBJ
 0001:0000113c       ___vba@05AA3248            0040213c     G.OBJ
 0001:0000115c       ___vba@05AA3280            0040215c     G.OBJ
 0001:00001170       ___vba@05AA3298            00402170     G.OBJ
 0001:0000119c       ___vba@05AA32B4            0040219c     G.OBJ
 0001:000011bc       ___vba@05AA32EC            004021bc     G.OBJ
 0001:000011e0       ___vba@05AA3300            004021e0     G.OBJ
 0001:00001200       ___vba@05AA3338            00402200     G.OBJ
 0001:00001224       ___vba@05AA338C            00402224     G.OBJ
 0001:00001244       ___vba@05AA33C4            00402244     G.OBJ
 0001:00001264       ___vba@05AA33D4            00402264     G.OBJ
 0001:00001284       ___vba@05AA340C            00402284     G.OBJ
 0001:000012a4       ___vba@05AA341C            004022a4     G.OBJ
 0001:000012c4       ___vba@05AA3454            004022c4     G.OBJ
 0001:000012e8       ___vba@05AA3468            004022e8     G.OBJ
 0001:00001308       ___vba@05AA34A0            00402308     G.OBJ
 0001:00001334       ___vba@05AA34BC            00402334     G.OBJ
 0001:00001354       ___vba@05AA34F4            00402354     G.OBJ
 0001:0000137c       ___vba@05AA350C            0040237c     G.OBJ
 0001:0000139c       ___vba@05AA3544            0040239c     G.OBJ
 0001:000013a8       ___vba@05AA3558            004023a8     G.OBJ
 0001:000013b8       ___vba@05AA356C            004023b8     G.OBJ
 0001:000013e0       ___vba@05AA35B4            004023e0     G.OBJ
 0001:00001400       ___vba@05AA35EC            00402400     G.OBJ
 0001:00001420       ___vba@05AA35FC            00402420     G.OBJ
 0001:00001440       ___vba@05AA3634            00402440     G.OBJ
 0001:00001464       ___vba@05AA3648            00402464     G.OBJ
 0001:00001480       ___vba@05AA3680            00402480     G.OBJ
 0001:000014b8       ___vba@05AA36B8            004024b8     G.OBJ
 0001:000014c4       ___vba@05AA36C8            004024c4     G.OBJ
 0001:000014cc       ___vba@05AA36D8            004024cc     G.OBJ
 0001:000014d8       ___vba@05AA36E8            004024d8     G.OBJ
 0001:000014e8       ___vba@05AA3734            004024e8     G.OBJ
 0001:000014fc       ___vba@05AA3784            004024fc     G.OBJ
 0001:0000150c       ___vba@05AA3798            0040250c     G.OBJ
 0001:0000151c       ___vba@05AA3C64            0040251c     G.OBJ
 0001:00001528       ___vba@05AA3CAC            00402528     G.OBJ
 0001:00001534       ___vba@05AA3CF4            00402534     G.OBJ
 0001:00001540       ___vba@05AA3D3C            00402540     G.OBJ
 0001:00001550       ___vba@05AA3D88            00402550     G.OBJ
 0001:0000155c       ___vba@05AA3DD0            0040255c     G.OBJ
 0001:0000156c       ___vba@05AA3E8C            0040256c     G.OBJ
 0001:00001578       ___vba@05AA3ED4            00402578     G.OBJ
 0001:00001588       ___vba@05AA3F20            00402588     G.OBJ
 0001:0000159c       ___vba@05AA3F70            0040259c     G.OBJ
 0001:000015a8       ___vba@05AA3FB8            004025a8     G.OBJ
 0001:000015b8       ___vba@05AA4004            004025b8     G.OBJ
 0001:000015c4       ___vba@05AA40B4            004025c4     G.OBJ
 0001:000015dc       ___vba@05AA4108            004025dc     G.OBJ
 0001:000015e8       ___vba@05AA4150            004025e8     G.OBJ
 0001:000015fc       ___vba@05AA41D8            004025fc     G.OBJ
 0001:00001608       ___vba@05AA4220            00402608     G.OBJ
 0001:00001624       ___vba@05AA4314            00402624     G.OBJ
 0001:00001630       ___vba@05AA435C            00402630     G.OBJ
 0001:00001644       ___vba@05AA43AC            00402644     G.OBJ
 0001:00001654       ___vba@05AA4430            00402654     G.OBJ
 0001:00001664       ___vba@05AA447C            00402664     G.OBJ
 0001:00001670       ___vba@05AA4954            00402670     G.OBJ
 0001:00001704       ___vba@00702B8C            00402704     G.OBJ
 0001:00001744       ___vba@05AA28C4            00402744     G.OBJ
 0001:0000176c       ___vba@05AA28F0            0040276c     G.OBJ
 0001:00001778       ___vba@05AA2900            00402778     G.OBJ
 0001:00001784       ___vba@05AA2910            00402784     G.OBJ
 0001:00001788       ___vba@05AA2918            00402788     G.OBJ
 0001:0000178c       ___vba@05AA2920            0040278c     G.OBJ
 0001:00001790       ___vba@05AA2928            00402790     G.OBJ
 0001:000017a0       VB@BTXT                    004027a0     G.OBJ
 0001:000017b0       ?Form_KeyDown@fmain@@AAGXXZ 004027b0 f   Form1.OBJ
 0001:00001840       ?Form_Load@fmain@@AAGXXZ   00402840 f   Form1.OBJ
 0001:000018d0       ?Form_MouseDown@fmain@@AAGXXZ 004028d0 f   Form1.OBJ
 0001:00001a10       ?Form_MouseMove@fmain@@AAGXXZ 00402a10 f   Form1.OBJ
 0001:00001b60       ?CreateSubject@fmain@@AAGXXZ 00402b60 f   Form1.OBJ
 0001:00001d80       ?Xtime_Timer@fmain@@AAGXXZ 00402d80 f   Form1.OBJ
 0001:00002890       ?Distance@fmain@@AAGXXZ    00403890 f   Form1.OBJ
 0001:000029f0       ?TextPrint@bas@@AAGXXZ     004039f0 f   bas.OBJ
 0001:00002c90       VB@ETXT                    00403c90     G.OBJ
 0002:00000000       __adjust_fdiv              00405000     VBAEXE6:natsupp.obj
 0002:00000008       VB@BSS                     00405008     G.OBJ
 0002:00000010       ___vba@05AA1BF0            00405010     G.OBJ
 0002:00000024       _bas                       00405024     G.OBJ
 0002:000004cc       ___vba@065E1CAC            004054cc     G.OBJ

 entry point at        0001:00000310

 Static symbols

